---
triple:          'arm64-apple-darwin'
binary-path:     '/Users/apple/Documents/cpp/tower_color_game/a.out'
relocations:
  - { offsetInCU: 0x69, offset: 0x69, size: 0x8, addend: 0x0, symName: __ZNSt3__16ranges5__cpo9iter_moveE, symObjAddr: 0xD936, symBinAddr: 0x10000F736, symSize: 0x0 }
  - { offsetInCU: 0xBA, offset: 0xBA, size: 0x8, addend: 0x0, symName: __ZNSt3__1L19piecewise_constructE, symObjAddr: 0xD937, symBinAddr: 0x10000F737, symSize: 0x0 }
  - { offsetInCU: 0x5F58, offset: 0x5F58, size: 0x8, addend: 0x0, symName: __ZNSt3__17advanceB7v160006IPNS_12basic_stringIcNS_11char_traitsIcEENS_9allocatorIcEEEEllvEEvRT_T0_, symObjAddr: 0x3A5C, symBinAddr: 0x1000054F0, symSize: 0x50 }
  - { offsetInCU: 0x5F60, offset: 0x5F60, size: 0x8, addend: 0x0, symName: __ZNSt3__121__convert_to_integralB7v160006El, symObjAddr: 0x3AAC, symBinAddr: 0x100005540, symSize: 0x14 }
  - { offsetInCU: 0x6208, offset: 0x6208, size: 0x8, addend: 0x0, symName: __ZNSt3__17advanceB7v160006INS_16reverse_iteratorIPNS_12basic_stringIcNS_11char_traitsIcEENS_9allocatorIcEEEEEEllvEEvRT_T0_, symObjAddr: 0x3ECC, symBinAddr: 0x100005960, symSize: 0x50 }
  - { offsetInCU: 0x6210, offset: 0x6210, size: 0x8, addend: 0x0, symName: __ZNSt3__19__advanceB7v160006INS_16reverse_iteratorIPNS_12basic_stringIcNS_11char_traitsIcEENS_9allocatorIcEEEEEEEEvRT_NS_15iterator_traitsISA_E15difference_typeENS_26random_access_iterator_tagE, symObjAddr: 0x3F1C, symBinAddr: 0x1000059B0, symSize: 0x2C }
  - { offsetInCU: 0x9325, offset: 0x9325, size: 0x8, addend: 0x0, symName: __ZNSt3__17advanceB7v160006IPNS_5stackIcNS_5dequeIcNS_9allocatorIcEEEEEEllvEEvRT_T0_, symObjAddr: 0x593C, symBinAddr: 0x1000073D0, symSize: 0x50 }
  - { offsetInCU: 0x932D, offset: 0x932D, size: 0x8, addend: 0x0, symName: __ZNSt3__19__advanceB7v160006IPNS_5stackIcNS_5dequeIcNS_9allocatorIcEEEEEEEEvRT_NS_15iterator_traitsIS8_E15difference_typeENS_26random_access_iterator_tagE, symObjAddr: 0x598C, symBinAddr: 0x100007420, symSize: 0x30 }
  - { offsetInCU: 0x95D5, offset: 0x95D5, size: 0x8, addend: 0x0, symName: __ZNSt3__17advanceB7v160006INS_16reverse_iteratorIPNS_5stackIcNS_5dequeIcNS_9allocatorIcEEEEEEEEllvEEvRT_T0_, symObjAddr: 0x5D98, symBinAddr: 0x10000782C, symSize: 0x50 }
  - { offsetInCU: 0x95DD, offset: 0x95DD, size: 0x8, addend: 0x0, symName: __ZNSt3__19__advanceB7v160006INS_16reverse_iteratorIPNS_5stackIcNS_5dequeIcNS_9allocatorIcEEEEEEEEEEvRT_NS_15iterator_traitsISA_E15difference_typeENS_26random_access_iterator_tagE, symObjAddr: 0x5DE8, symBinAddr: 0x10000787C, symSize: 0x2C }
  - { offsetInCU: 0xCBEF, offset: 0xCBEF, size: 0x8, addend: 0x0, symName: __ZNSt3__124__put_character_sequenceB7v160006IcNS_11char_traitsIcEEEERNS_13basic_ostreamIT_T0_EES7_PKS4_m, symObjAddr: 0xBD74, symBinAddr: 0x10000D808, symSize: 0x1EC }
  - { offsetInCU: 0xCBF7, offset: 0xCBF7, size: 0x8, addend: 0x0, symName: __ZNSt3__111char_traitsIcE6lengthEPKc, symObjAddr: 0xBF60, symBinAddr: 0x10000D9F4, symSize: 0x34 }
  - { offsetInCU: 0xEB51, offset: 0xEB51, size: 0x8, addend: 0x0, symName: __ZNSt3__1lsB7v160006INS_11char_traitsIcEEEERNS_13basic_ostreamIcT_EES6_PKc, symObjAddr: 0xACC, symBinAddr: 0x100002560, symSize: 0x48 }
  - { offsetInCU: 0xEB59, offset: 0xEB59, size: 0x8, addend: 0x0, symName: __ZNSt3__113basic_ostreamIcNS_11char_traitsIcEEElsB7v160006EPFRS3_S4_E, symObjAddr: 0xB14, symBinAddr: 0x1000025A8, symSize: 0x2C }
  - { offsetInCU: 0xEB9C, offset: 0xEB9C, size: 0x8, addend: 0x0, symName: __ZNSt3__14endlB7v160006IcNS_11char_traitsIcEEEERNS_13basic_ostreamIT_T0_EES7_, symObjAddr: 0xB40, symBinAddr: 0x1000025D4, symSize: 0x58 }
  - { offsetInCU: 0xEBA4, offset: 0xEBA4, size: 0x8, addend: 0x0, symName: __ZNKSt3__16vectorINS_12basic_stringIcNS_11char_traitsIcEENS_9allocatorIcEEEENS4_IS6_EEE4sizeB7v160006Ev, symObjAddr: 0xB98, symBinAddr: 0x10000262C, symSize: 0x28 }
  - { offsetInCU: 0xEBE1, offset: 0xEBE1, size: 0x8, addend: 0x0, symName: __ZNSt3__1lsB7v160006IcNS_11char_traitsIcEENS_9allocatorIcEEEERNS_13basic_ostreamIT_T0_EES9_RKNS_12basic_stringIS6_S7_T1_EE, symObjAddr: 0xBC0, symBinAddr: 0x100002654, symSize: 0x4C }
  - { offsetInCU: 0xEBE9, offset: 0xEBE9, size: 0x8, addend: 0x0, symName: __ZNSt3__16vectorINS_12basic_stringIcNS_11char_traitsIcEENS_9allocatorIcEEEENS4_IS6_EEEixB7v160006Em, symObjAddr: 0xC0C, symBinAddr: 0x1000026A0, symSize: 0x2C }
  - { offsetInCU: 0xEC3E, offset: 0xEC3E, size: 0x8, addend: 0x0, symName: __ZNSt3__1eqB7v160006INS_9allocatorIcEEEEbRKNS_12basic_stringIcNS_11char_traitsIcEET_EES9_, symObjAddr: 0xC38, symBinAddr: 0x1000026CC, symSize: 0x148 }
  - { offsetInCU: 0xEC46, offset: 0xEC46, size: 0x8, addend: 0x0, symName: __ZNSt3__15stackIcNS_5dequeIcNS_9allocatorIcEEEEE4pushB7v160006ERKc, symObjAddr: 0xD80, symBinAddr: 0x100002814, symSize: 0x2C }
  - { offsetInCU: 0xECB6, offset: 0xECB6, size: 0x8, addend: 0x0, symName: __ZNSt3__1plB7v160006IcNS_11char_traitsIcEENS_9allocatorIcEEEENS_12basic_stringIT_T0_T1_EEOS9_PKS6_, symObjAddr: 0xE18, symBinAddr: 0x1000028AC, symSize: 0x40 }
  - { offsetInCU: 0xECBE, offset: 0xECBE, size: 0x8, addend: 0x0, symName: __ZNSt3__1plB7v160006IcNS_11char_traitsIcEENS_9allocatorIcEEEENS_12basic_stringIT_T0_T1_EEOS9_SA_, symObjAddr: 0xE58, symBinAddr: 0x1000028EC, symSize: 0x40 }
  - { offsetInCU: 0xED13, offset: 0xED13, size: 0x8, addend: 0x0, symName: __ZNSt3__1plB7v160006IcNS_11char_traitsIcEENS_9allocatorIcEEEENS_12basic_stringIT_T0_T1_EEOS9_SA_, symObjAddr: 0xE58, symBinAddr: 0x1000028EC, symSize: 0x40 }
  - { offsetInCU: 0xED1B, offset: 0xED1B, size: 0x8, addend: 0x0, symName: __ZNSt3__1plB7v160006IcNS_11char_traitsIcEENS_9allocatorIcEEEENS_12basic_stringIT_T0_T1_EEPKS6_OS9_, symObjAddr: 0xE98, symBinAddr: 0x10000292C, symSize: 0x44 }
  - { offsetInCU: 0xED70, offset: 0xED70, size: 0x8, addend: 0x0, symName: __ZNSt3__1plB7v160006IcNS_11char_traitsIcEENS_9allocatorIcEEEENS_12basic_stringIT_T0_T1_EEPKS6_OS9_, symObjAddr: 0xE98, symBinAddr: 0x10000292C, symSize: 0x44 }
  - { offsetInCU: 0xED78, offset: 0xED78, size: 0x8, addend: 0x0, symName: __ZNSt3__16vectorINS_12basic_stringIcNS_11char_traitsIcEENS_9allocatorIcEEEENS4_IS6_EEE8pop_backEv, symObjAddr: 0xEDC, symBinAddr: 0x100002970, symSize: 0x2C }
  - { offsetInCU: 0xEDCD, offset: 0xEDCD, size: 0x8, addend: 0x0, symName: __ZNSt3__1rsB7v160006IcNS_11char_traitsIcEEEERNS_13basic_istreamIT_T0_EES7_RS4_, symObjAddr: 0x12CC, symBinAddr: 0x100002D60, symSize: 0x190 }
  - { offsetInCU: 0xEDD5, offset: 0xEDD5, size: 0x8, addend: 0x0, symName: __ZNSt3__16vectorINS_5stackIcNS_5dequeIcNS_9allocatorIcEEEEEENS3_IS6_EEE9push_backB7v160006ERKS6_, symObjAddr: 0x145C, symBinAddr: 0x100002EF0, symSize: 0x6C }
  - { offsetInCU: 0xEE54, offset: 0xEE54, size: 0x8, addend: 0x0, symName: __ZNSt3__1neB7v160006ERKNS_16__deque_iteratorIcPcRcPS1_lLl4096EEES6_, symObjAddr: 0x19EC, symBinAddr: 0x100003480, symSize: 0x34 }
  - { offsetInCU: 0xEE5C, offset: 0xEE5C, size: 0x8, addend: 0x0, symName: ___clang_call_terminate, symObjAddr: 0x1A20, symBinAddr: 0x1000034B4, symSize: 0xC }
  - { offsetInCU: 0xEE96, offset: 0xEE96, size: 0x8, addend: 0x0, symName: __ZNSt3__1eqB7v160006ERKNS_16__deque_iteratorIcPcRcPS1_lLl4096EEES6_, symObjAddr: 0x1C80, symBinAddr: 0x100003714, symSize: 0x30 }
  - { offsetInCU: 0xEE9E, offset: 0xEE9E, size: 0x8, addend: 0x0, symName: __ZNSt3__110destroy_atB7v160006IcLi0EEEvPT_, symObjAddr: 0x1CB0, symBinAddr: 0x100003744, symSize: 0x24 }
  - { offsetInCU: 0xEED9, offset: 0xEED9, size: 0x8, addend: 0x0, symName: __ZNSt3__110destroy_atB7v160006IcLi0EEEvPT_, symObjAddr: 0x1CB0, symBinAddr: 0x100003744, symSize: 0x24 }
  - { offsetInCU: 0xEEE1, offset: 0xEEE1, size: 0x8, addend: 0x0, symName: __ZNSt3__112__destroy_atB7v160006IcLi0EEEvPT_, symObjAddr: 0x1CD4, symBinAddr: 0x100003768, symSize: 0x10 }
  - { offsetInCU: 0xEF15, offset: 0xEF15, size: 0x8, addend: 0x0, symName: __ZNSt3__112__destroy_atB7v160006IcLi0EEEvPT_, symObjAddr: 0x1CD4, symBinAddr: 0x100003768, symSize: 0x10 }
  - { offsetInCU: 0xEF1D, offset: 0xEF1D, size: 0x8, addend: 0x0, symName: __ZNSt3__117__compressed_pairImNS_9allocatorIcEEE5firstB7v160006Ev, symObjAddr: 0x1CE4, symBinAddr: 0x100003778, symSize: 0x24 }
  - { offsetInCU: 0xEF52, offset: 0xEF52, size: 0x8, addend: 0x0, symName: __ZNSt3__119__libcpp_deallocateB7v160006EPvmm, symObjAddr: 0x1DA8, symBinAddr: 0x10000383C, symSize: 0x60 }
  - { offsetInCU: 0xEF5A, offset: 0xEF5A, size: 0x8, addend: 0x0, symName: __ZNSt3__124__is_overaligned_for_newB7v160006Em, symObjAddr: 0x1E08, symBinAddr: 0x10000389C, symSize: 0x20 }
  - { offsetInCU: 0xEFC0, offset: 0xEFC0, size: 0x8, addend: 0x0, symName: __ZNSt3__124__is_overaligned_for_newB7v160006Em, symObjAddr: 0x1E08, symBinAddr: 0x10000389C, symSize: 0x20 }
  - { offsetInCU: 0xEFC8, offset: 0xEFC8, size: 0x8, addend: 0x0, symName: __ZNSt3__127__do_deallocate_handle_sizeB7v160006IJSt11align_val_tEEEvPvmDpT_, symObjAddr: 0x1E28, symBinAddr: 0x1000038BC, symSize: 0x30 }
  - { offsetInCU: 0xEFF4, offset: 0xEFF4, size: 0x8, addend: 0x0, symName: __ZNSt3__127__do_deallocate_handle_sizeB7v160006IJSt11align_val_tEEEvPvmDpT_, symObjAddr: 0x1E28, symBinAddr: 0x1000038BC, symSize: 0x30 }
  - { offsetInCU: 0xEFFC, offset: 0xEFFC, size: 0x8, addend: 0x0, symName: __ZNSt3__127__do_deallocate_handle_sizeB7v160006IJEEEvPvmDpT_, symObjAddr: 0x1E58, symBinAddr: 0x1000038EC, symSize: 0x28 }
  - { offsetInCU: 0xF04C, offset: 0xF04C, size: 0x8, addend: 0x0, symName: __ZNSt3__127__do_deallocate_handle_sizeB7v160006IJEEEvPvmDpT_, symObjAddr: 0x1E58, symBinAddr: 0x1000038EC, symSize: 0x28 }
  - { offsetInCU: 0xF054, offset: 0xF054, size: 0x8, addend: 0x0, symName: __ZNSt3__124__libcpp_operator_deleteB7v160006IJPvSt11align_val_tEEEvDpT_, symObjAddr: 0x1E80, symBinAddr: 0x100003914, symSize: 0x2C }
  - { offsetInCU: 0xF08F, offset: 0xF08F, size: 0x8, addend: 0x0, symName: __ZNSt3__124__libcpp_operator_deleteB7v160006IJPvSt11align_val_tEEEvDpT_, symObjAddr: 0x1E80, symBinAddr: 0x100003914, symSize: 0x2C }
  - { offsetInCU: 0xF097, offset: 0xF097, size: 0x8, addend: 0x0, symName: __ZNSt3__124__libcpp_operator_deleteB7v160006IJPvEEEvDpT_, symObjAddr: 0x1EAC, symBinAddr: 0x100003940, symSize: 0x24 }
  - { offsetInCU: 0xF0DD, offset: 0xF0DD, size: 0x8, addend: 0x0, symName: __ZNSt3__124__libcpp_operator_deleteB7v160006IJPvEEEvDpT_, symObjAddr: 0x1EAC, symBinAddr: 0x100003940, symSize: 0x24 }
  - { offsetInCU: 0xF0E5, offset: 0xF0E5, size: 0x8, addend: 0x0, symName: __ZNSt3__117__compressed_pairImNS_9allocatorIcEEE6secondB7v160006Ev, symObjAddr: 0x1ED0, symBinAddr: 0x100003964, symSize: 0x24 }
  - { offsetInCU: 0xF117, offset: 0xF117, size: 0x8, addend: 0x0, symName: __ZNSt3__112__to_addressB7v160006IPcEEPT_S3_, symObjAddr: 0x212C, symBinAddr: 0x100003BC0, symSize: 0x14 }
  - { offsetInCU: 0xF11F, offset: 0xF11F, size: 0x8, addend: 0x0, symName: __ZNSt3__110destroy_atB7v160006IPcLi0EEEvPT_, symObjAddr: 0x2140, symBinAddr: 0x100003BD4, symSize: 0x24 }
  - { offsetInCU: 0xF152, offset: 0xF152, size: 0x8, addend: 0x0, symName: __ZNSt3__110destroy_atB7v160006IPcLi0EEEvPT_, symObjAddr: 0x2140, symBinAddr: 0x100003BD4, symSize: 0x24 }
  - { offsetInCU: 0xF15A, offset: 0xF15A, size: 0x8, addend: 0x0, symName: __ZNSt3__112__destroy_atB7v160006IPcLi0EEEvPT_, symObjAddr: 0x2164, symBinAddr: 0x100003BF8, symSize: 0x10 }
  - { offsetInCU: 0xF18E, offset: 0xF18E, size: 0x8, addend: 0x0, symName: __ZNSt3__112__destroy_atB7v160006IPcLi0EEEvPT_, symObjAddr: 0x2164, symBinAddr: 0x100003BF8, symSize: 0x10 }
  - { offsetInCU: 0xF196, offset: 0xF196, size: 0x8, addend: 0x0, symName: __ZNSt3__19allocatorIPcE10deallocateB7v160006EPS1_m, symObjAddr: 0x2174, symBinAddr: 0x100003C08, symSize: 0x40 }
  - { offsetInCU: 0xF1CB, offset: 0xF1CB, size: 0x8, addend: 0x0, symName: __ZNSt3__112__to_addressB7v160006IKcEEPT_S3_, symObjAddr: 0x2400, symBinAddr: 0x100003E94, symSize: 0x14 }
  - { offsetInCU: 0xF1D3, offset: 0xF1D3, size: 0x8, addend: 0x0, symName: __ZNKSt3__112basic_stringIcNS_11char_traitsIcEENS_9allocatorIcEEE13__get_pointerB7v160006Ev, symObjAddr: 0x2414, symBinAddr: 0x100003EA8, symSize: 0x54 }
  - { offsetInCU: 0xF23B, offset: 0xF23B, size: 0x8, addend: 0x0, symName: __ZNSt3__118__constexpr_memcmpB7v160006IcEEiPKT_S3_m, symObjAddr: 0x24CC, symBinAddr: 0x100003F60, symSize: 0x34 }
  - { offsetInCU: 0xF243, offset: 0xF243, size: 0x8, addend: 0x0, symName: __ZNSt3__16vectorINS_12basic_stringIcNS_11char_traitsIcEENS_9allocatorIcEEEENS4_IS6_EEE9__end_capB7v160006Ev, symObjAddr: 0x2500, symBinAddr: 0x100003F94, symSize: 0x28 }
  - { offsetInCU: 0xF291, offset: 0xF291, size: 0x8, addend: 0x0, symName: __ZNSt3__112__to_addressB7v160006INS_12basic_stringIcNS_11char_traitsIcEENS_9allocatorIcEEEEEEPT_S8_, symObjAddr: 0x275C, symBinAddr: 0x1000041F0, symSize: 0x14 }
  - { offsetInCU: 0xF299, offset: 0xF299, size: 0x8, addend: 0x0, symName: __ZNSt3__16vectorINS_12basic_stringIcNS_11char_traitsIcEENS_9allocatorIcEEEENS4_IS6_EEE21_ConstructTransactionD1B7v160006Ev, symObjAddr: 0x2770, symBinAddr: 0x100004204, symSize: 0x2C }
  - { offsetInCU: 0xF2F2, offset: 0xF2F2, size: 0x8, addend: 0x0, symName: __ZNSt3__112construct_atB7v160006INS_12basic_stringIcNS_11char_traitsIcEENS_9allocatorIcEEEEJS6_EPS6_EEPT_S9_DpOT0_, symObjAddr: 0x27E8, symBinAddr: 0x10000427C, symSize: 0x3C }
  - { offsetInCU: 0xF2FA, offset: 0xF2FA, size: 0x8, addend: 0x0, symName: __ZNSt3__112basic_stringIcNS_11char_traitsIcEENS_9allocatorIcEEEC1B7v160006EOS5_, symObjAddr: 0x2824, symBinAddr: 0x1000042B8, symSize: 0x34 }
  - { offsetInCU: 0xF36B, offset: 0xF36B, size: 0x8, addend: 0x0, symName: __ZNSt3__119__debug_db_insert_cB7v160006INS_12basic_stringIcNS_11char_traitsIcEENS_9allocatorIcEEEEEEvPT_, symObjAddr: 0x2920, symBinAddr: 0x1000043B4, symSize: 0x10 }
  - { offsetInCU: 0xF373, offset: 0xF373, size: 0x8, addend: 0x0, symName: __ZNSt3__115__debug_db_swapB7v160006INS_12basic_stringIcNS_11char_traitsIcEENS_9allocatorIcEEEEEEvPT_S8_, symObjAddr: 0x2930, symBinAddr: 0x1000043C4, symSize: 0x14 }
  - { offsetInCU: 0xF3A2, offset: 0xF3A2, size: 0x8, addend: 0x0, symName: __ZNSt3__115__debug_db_swapB7v160006INS_12basic_stringIcNS_11char_traitsIcEENS_9allocatorIcEEEEEEvPT_S8_, symObjAddr: 0x2930, symBinAddr: 0x1000043C4, symSize: 0x14 }
  - { offsetInCU: 0xF3AA, offset: 0xF3AA, size: 0x8, addend: 0x0, symName: __ZNSt3__117__compressed_pairINS_12basic_stringIcNS_11char_traitsIcEENS_9allocatorIcEEE5__repES5_E5firstB7v160006Ev, symObjAddr: 0x2944, symBinAddr: 0x1000043D8, symSize: 0x24 }
  - { offsetInCU: 0xF3E7, offset: 0xF3E7, size: 0x8, addend: 0x0, symName: __ZNSt3__13maxB7v160006ImEERKT_S3_S3_, symObjAddr: 0x2CCC, symBinAddr: 0x100004760, symSize: 0x2C }
  - { offsetInCU: 0xF3EF, offset: 0xF3EF, size: 0x8, addend: 0x0, symName: __ZNSt3__13minB7v160006ImEERKT_S3_S3_, symObjAddr: 0x2CF8, symBinAddr: 0x10000478C, symSize: 0x2C }
  - { offsetInCU: 0xF42F, offset: 0xF42F, size: 0x8, addend: 0x0, symName: __ZNSt3__13minB7v160006ImEERKT_S3_S3_, symObjAddr: 0x2CF8, symBinAddr: 0x10000478C, symSize: 0x2C }
  - { offsetInCU: 0xF437, offset: 0xF437, size: 0x8, addend: 0x0, symName: __ZNSt3__116allocator_traitsINS_9allocatorINS_12basic_stringIcNS_11char_traitsIcEENS1_IcEEEEEEE8max_sizeB7v160006IS7_vvEEmRKS7_, symObjAddr: 0x2D24, symBinAddr: 0x1000047B8, symSize: 0x28 }
  - { offsetInCU: 0xF6A1, offset: 0xF6A1, size: 0x8, addend: 0x0, symName: __ZNSt3__13minB7v160006ImNS_6__lessImmEEEERKT_S5_S5_T0_, symObjAddr: 0x2D88, symBinAddr: 0x10000481C, symSize: 0x54 }
  - { offsetInCU: 0xF6A9, offset: 0xF6A9, size: 0x8, addend: 0x0, symName: __ZNKSt3__16__lessImmEclB7v160006ERKmS3_, symObjAddr: 0x2DDC, symBinAddr: 0x100004870, symSize: 0x34 }
  - { offsetInCU: 0xF96B, offset: 0xF96B, size: 0x8, addend: 0x0, symName: __ZNSt3__120__throw_length_errorB7v160006EPKc, symObjAddr: 0x2E6C, symBinAddr: 0x100004900, symSize: 0x64 }
  - { offsetInCU: 0xF973, offset: 0xF973, size: 0x8, addend: 0x0, symName: __ZNSt12length_errorC1B7v160006EPKc, symObjAddr: 0x2ED0, symBinAddr: 0x100004964, symSize: 0x34 }
  - { offsetInCU: 0xF999, offset: 0xF999, size: 0x8, addend: 0x0, symName: __ZNSt3__13maxB7v160006ImNS_6__lessImmEEEERKT_S5_S5_T0_, symObjAddr: 0x2FB0, symBinAddr: 0x100004A44, symSize: 0x54 }
  - { offsetInCU: 0xF9A1, offset: 0xF9A1, size: 0x8, addend: 0x0, symName: __ZNSt3__114__split_bufferINS_12basic_stringIcNS_11char_traitsIcEENS_9allocatorIcEEEERNS4_IS6_EEEC2EmmS8_, symObjAddr: 0x3004, symBinAddr: 0x100004A98, symSize: 0xE0 }
  - { offsetInCU: 0xF9F8, offset: 0xF9F8, size: 0x8, addend: 0x0, symName: __ZNSt3__119__allocate_at_leastB7v160006INS_9allocatorINS_12basic_stringIcNS_11char_traitsIcEENS1_IcEEEEEEEENS_19__allocation_resultINS_16allocator_traitsIT_E7pointerEEERSA_m, symObjAddr: 0x3120, symBinAddr: 0x100004BB4, symSize: 0x40 }
  - { offsetInCU: 0xFA00, offset: 0xFA00, size: 0x8, addend: 0x0, symName: __ZNSt3__114__split_bufferINS_12basic_stringIcNS_11char_traitsIcEENS_9allocatorIcEEEERNS4_IS6_EEE7__allocB7v160006Ev, symObjAddr: 0x3160, symBinAddr: 0x100004BF4, symSize: 0x28 }
  - { offsetInCU: 0xFA40, offset: 0xFA40, size: 0x8, addend: 0x0, symName: __ZNSt3__117__libcpp_allocateB7v160006Emm, symObjAddr: 0x32C4, symBinAddr: 0x100004D58, symSize: 0x60 }
  - { offsetInCU: 0xFA48, offset: 0xFA48, size: 0x8, addend: 0x0, symName: __ZNSt3__121__libcpp_operator_newB7v160006IJmSt11align_val_tEEEPvDpT_, symObjAddr: 0x3324, symBinAddr: 0x100004DB8, symSize: 0x2C }
  - { offsetInCU: 0xFAA3, offset: 0xFAA3, size: 0x8, addend: 0x0, symName: __ZNSt3__121__libcpp_operator_newB7v160006IJmSt11align_val_tEEEPvDpT_, symObjAddr: 0x3324, symBinAddr: 0x100004DB8, symSize: 0x2C }
  - { offsetInCU: 0xFAAB, offset: 0xFAAB, size: 0x8, addend: 0x0, symName: __ZNSt3__121__libcpp_operator_newB7v160006IJmEEEPvDpT_, symObjAddr: 0x3350, symBinAddr: 0x100004DE4, symSize: 0x24 }
  - { offsetInCU: 0xFAF5, offset: 0xFAF5, size: 0x8, addend: 0x0, symName: __ZNSt3__121__libcpp_operator_newB7v160006IJmEEEPvDpT_, symObjAddr: 0x3350, symBinAddr: 0x100004DE4, symSize: 0x24 }
  - { offsetInCU: 0xFAFD, offset: 0xFAFD, size: 0x8, addend: 0x0, symName: __ZNSt3__117__compressed_pairIPNS_12basic_stringIcNS_11char_traitsIcEENS_9allocatorIcEEEERNS4_IS6_EEE6secondB7v160006Ev, symObjAddr: 0x3374, symBinAddr: 0x100004E08, symSize: 0x28 }
  - { offsetInCU: 0xFB33, offset: 0xFB33, size: 0x8, addend: 0x0, symName: __ZNSt3__142__uninitialized_allocator_move_if_noexceptB7v160006INS_9allocatorINS_12basic_stringIcNS_11char_traitsIcEENS1_IcEEEEEENS_16reverse_iteratorIPS6_EESA_SA_EET2_RT_T0_T1_SB_, symObjAddr: 0x34AC, symBinAddr: 0x100004F40, symSize: 0x12C }
  - { offsetInCU: 0xFB3B, offset: 0xFB3B, size: 0x8, addend: 0x0, symName: __ZNSt3__116reverse_iteratorIPNS_12basic_stringIcNS_11char_traitsIcEENS_9allocatorIcEEEEEC1B7v160006ES7_, symObjAddr: 0x35D8, symBinAddr: 0x10000506C, symSize: 0x34 }
  - { offsetInCU: 0xFBD8, offset: 0xFBD8, size: 0x8, addend: 0x0, symName: __ZNSt3__14swapB7v160006IPNS_12basic_stringIcNS_11char_traitsIcEENS_9allocatorIcEEEEEENS_9enable_ifIXaasr21is_move_constructibleIT_EE5valuesr18is_move_assignableIS9_EE5valueEvE4typeERS9_SC_, symObjAddr: 0x3624, symBinAddr: 0x1000050B8, symSize: 0x3C }
  - { offsetInCU: 0xFBE0, offset: 0xFBE0, size: 0x8, addend: 0x0, symName: __ZNKSt3__16vectorINS_12basic_stringIcNS_11char_traitsIcEENS_9allocatorIcEEEENS4_IS6_EEE14__annotate_newB7v160006Em, symObjAddr: 0x3660, symBinAddr: 0x1000050F4, symSize: 0xC8 }
  - { offsetInCU: 0xFC2F, offset: 0xFC2F, size: 0x8, addend: 0x0, symName: __ZNSt3__125__debug_db_invalidate_allB7v160006INS_6vectorINS_12basic_stringIcNS_11char_traitsIcEENS_9allocatorIcEEEENS5_IS7_EEEEEEvPT_, symObjAddr: 0x3728, symBinAddr: 0x1000051BC, symSize: 0x10 }
  - { offsetInCU: 0xFC37, offset: 0xFC37, size: 0x8, addend: 0x0, symName: __ZNKSt3__16vectorINS_12basic_stringIcNS_11char_traitsIcEENS_9allocatorIcEEEENS4_IS6_EEE31__annotate_contiguous_containerB7v160006EPKvSA_SA_SA_, symObjAddr: 0x3738, symBinAddr: 0x1000051CC, symSize: 0x20 }
  - { offsetInCU: 0xFC66, offset: 0xFC66, size: 0x8, addend: 0x0, symName: __ZNSt3__122__make_exception_guardB7v160006INS_29_AllocatorDestroyRangeReverseINS_9allocatorINS_12basic_stringIcNS_11char_traitsIcEENS2_IcEEEEEENS_16reverse_iteratorIPS7_EEEEEENS_28__exception_guard_exceptionsIT_EESE_, symObjAddr: 0x3780, symBinAddr: 0x100005214, symSize: 0x4C }
  - { offsetInCU: 0xFC6E, offset: 0xFC6E, size: 0x8, addend: 0x0, symName: __ZNSt3__129_AllocatorDestroyRangeReverseINS_9allocatorINS_12basic_stringIcNS_11char_traitsIcEENS1_IcEEEEEENS_16reverse_iteratorIPS6_EEEC1B7v160006ERS7_RSA_SD_, symObjAddr: 0x37CC, symBinAddr: 0x100005260, symSize: 0x44 }
  - { offsetInCU: 0xFCA1, offset: 0xFCA1, size: 0x8, addend: 0x0, symName: __ZNSt3__1neB7v160006IPNS_12basic_stringIcNS_11char_traitsIcEENS_9allocatorIcEEEES7_EEbRKNS_16reverse_iteratorIT_EERKNS8_IT0_EE, symObjAddr: 0x3810, symBinAddr: 0x1000052A4, symSize: 0x48 }
  - { offsetInCU: 0xFCA9, offset: 0xFCA9, size: 0x8, addend: 0x0, symName: __ZNSt3__112__to_addressB7v160006INS_16reverse_iteratorIPNS_12basic_stringIcNS_11char_traitsIcEENS_9allocatorIcEEEEEEvEENS_5decayIDTclsr19__to_address_helperIT_EE6__callclsr3stdE7declvalIRKSB_EEEEE4typeESD_, symObjAddr: 0x3858, symBinAddr: 0x1000052EC, symSize: 0x24 }
  - { offsetInCU: 0xFCF2, offset: 0xFCF2, size: 0x8, addend: 0x0, symName: __ZNSt3__112__to_addressB7v160006INS_16reverse_iteratorIPNS_12basic_stringIcNS_11char_traitsIcEENS_9allocatorIcEEEEEEvEENS_5decayIDTclsr19__to_address_helperIT_EE6__callclsr3stdE7declvalIRKSB_EEEEE4typeESD_, symObjAddr: 0x3858, symBinAddr: 0x1000052EC, symSize: 0x24 }
  - { offsetInCU: 0xFCFA, offset: 0xFCFA, size: 0x8, addend: 0x0, symName: __ZNKSt3__116reverse_iteratorIPNS_12basic_stringIcNS_11char_traitsIcEENS_9allocatorIcEEEEEdeB7v160006Ev, symObjAddr: 0x387C, symBinAddr: 0x100005310, symSize: 0x28 }
  - { offsetInCU: 0xFD59, offset: 0xFD59, size: 0x8, addend: 0x0, symName: __ZNSt3__14prevB7v160006IPNS_12basic_stringIcNS_11char_traitsIcEENS_9allocatorIcEEEEEENS_9enable_ifIXsr25__is_cpp17_input_iteratorIT_EE5valueES9_E4typeES9_NS_15iterator_traitsIS9_E15difference_typeE, symObjAddr: 0x3A0C, symBinAddr: 0x1000054A0, symSize: 0x50 }
  - { offsetInCU: 0xFD61, offset: 0xFD61, size: 0x8, addend: 0x0, symName: __ZNSt3__17advanceB7v160006IPNS_12basic_stringIcNS_11char_traitsIcEENS_9allocatorIcEEEEllvEEvRT_T0_, symObjAddr: 0x3A5C, symBinAddr: 0x1000054F0, symSize: 0x50 }
  - { offsetInCU: 0xFDA1, offset: 0xFDA1, size: 0x8, addend: 0x0, symName: __ZNSt3__121__convert_to_integralB7v160006El, symObjAddr: 0x3AAC, symBinAddr: 0x100005540, symSize: 0x14 }
  - { offsetInCU: 0xFDA9, offset: 0xFDA9, size: 0x8, addend: 0x0, symName: __ZNSt3__19__advanceB7v160006IPNS_12basic_stringIcNS_11char_traitsIcEENS_9allocatorIcEEEEEEvRT_NS_15iterator_traitsIS8_E15difference_typeENS_26random_access_iterator_tagE, symObjAddr: 0x3AC0, symBinAddr: 0x100005554, symSize: 0x30 }
  - { offsetInCU: 0xFDD3, offset: 0xFDD3, size: 0x8, addend: 0x0, symName: __ZNSt3__19__advanceB7v160006IPNS_12basic_stringIcNS_11char_traitsIcEENS_9allocatorIcEEEEEEvRT_NS_15iterator_traitsIS8_E15difference_typeENS_26random_access_iterator_tagE, symObjAddr: 0x3AC0, symBinAddr: 0x100005554, symSize: 0x30 }
  - { offsetInCU: 0xFDDB, offset: 0xFDDB, size: 0x8, addend: 0x0, symName: __ZNSt3__128__exception_guard_exceptionsINS_29_AllocatorDestroyRangeReverseINS_9allocatorINS_12basic_stringIcNS_11char_traitsIcEENS2_IcEEEEEENS_16reverse_iteratorIPS7_EEEEED2B7v160006Ev, symObjAddr: 0x3AF0, symBinAddr: 0x100005584, symSize: 0x50 }
  - { offsetInCU: 0xFE22, offset: 0xFE22, size: 0x8, addend: 0x0, symName: __ZNSt3__119__allocator_destroyB7v160006INS_9allocatorINS_12basic_stringIcNS_11char_traitsIcEENS1_IcEEEEEENS_16reverse_iteratorINS8_IPS6_EEEESB_EEvRT_T0_T1_, symObjAddr: 0x3BF4, symBinAddr: 0x100005688, symSize: 0x70 }
  - { offsetInCU: 0xFE2A, offset: 0xFE2A, size: 0x8, addend: 0x0, symName: __ZNSt3__116reverse_iteratorINS0_IPNS_12basic_stringIcNS_11char_traitsIcEENS_9allocatorIcEEEEEEEC1B7v160006ES8_, symObjAddr: 0x3C64, symBinAddr: 0x1000056F8, symSize: 0x3C }
  - { offsetInCU: 0xFE8C, offset: 0xFE8C, size: 0x8, addend: 0x0, symName: __ZNSt3__1neB7v160006INS_16reverse_iteratorIPNS_12basic_stringIcNS_11char_traitsIcEENS_9allocatorIcEEEEEES9_EEbRKNS1_IT_EERKNS1_IT0_EE, symObjAddr: 0x3CA0, symBinAddr: 0x100005734, symSize: 0x60 }
  - { offsetInCU: 0xFE94, offset: 0xFE94, size: 0x8, addend: 0x0, symName: __ZNSt3__116allocator_traitsINS_9allocatorINS_12basic_stringIcNS_11char_traitsIcEENS1_IcEEEEEEE7destroyB7v160006IS6_vvEEvRS7_PT_, symObjAddr: 0x3D00, symBinAddr: 0x100005794, symSize: 0x28 }
  - { offsetInCU: 0xFEDD, offset: 0xFEDD, size: 0x8, addend: 0x0, symName: __ZNSt3__112__to_addressB7v160006INS_16reverse_iteratorINS1_IPNS_12basic_stringIcNS_11char_traitsIcEENS_9allocatorIcEEEEEEEEvEENS_5decayIDTclsr19__to_address_helperIT_EE6__callclsr3stdE7declvalIRKSC_EEEEE4typeESE_, symObjAddr: 0x3D28, symBinAddr: 0x1000057BC, symSize: 0x24 }
  - { offsetInCU: 0xFEE5, offset: 0xFEE5, size: 0x8, addend: 0x0, symName: __ZNSt3__116reverse_iteratorINS0_IPNS_12basic_stringIcNS_11char_traitsIcEENS_9allocatorIcEEEEEEEppB7v160006Ev, symObjAddr: 0x3D4C, symBinAddr: 0x1000057E0, symSize: 0x30 }
  - { offsetInCU: 0xFF18, offset: 0xFF18, size: 0x8, addend: 0x0, symName: __ZNSt3__110destroy_atB7v160006INS_12basic_stringIcNS_11char_traitsIcEENS_9allocatorIcEEEELi0EEEvPT_, symObjAddr: 0x3DA0, symBinAddr: 0x100005834, symSize: 0x24 }
  - { offsetInCU: 0xFF20, offset: 0xFF20, size: 0x8, addend: 0x0, symName: __ZNSt3__112__destroy_atB7v160006INS_12basic_stringIcNS_11char_traitsIcEENS_9allocatorIcEEEELi0EEEvPT_, symObjAddr: 0x3DC4, symBinAddr: 0x100005858, symSize: 0x24 }
  - { offsetInCU: 0xFF54, offset: 0xFF54, size: 0x8, addend: 0x0, symName: __ZNSt3__112__destroy_atB7v160006INS_12basic_stringIcNS_11char_traitsIcEENS_9allocatorIcEEEELi0EEEvPT_, symObjAddr: 0x3DC4, symBinAddr: 0x100005858, symSize: 0x24 }
  - { offsetInCU: 0xFF5C, offset: 0xFF5C, size: 0x8, addend: 0x0, symName: __ZNSt3__119__to_address_helperINS_16reverse_iteratorINS1_IPNS_12basic_stringIcNS_11char_traitsIcEENS_9allocatorIcEEEEEEEEvE6__callB7v160006ERKSA_, symObjAddr: 0x3DE8, symBinAddr: 0x10000587C, symSize: 0x38 }
  - { offsetInCU: 0xFFBC, offset: 0xFFBC, size: 0x8, addend: 0x0, symName: __ZNSt3__14prevB7v160006INS_16reverse_iteratorIPNS_12basic_stringIcNS_11char_traitsIcEENS_9allocatorIcEEEEEEEENS_9enable_ifIXsr25__is_cpp17_input_iteratorIT_EE5valueESB_E4typeESB_NS_15iterator_traitsISB_E15difference_typeE, symObjAddr: 0x3E6C, symBinAddr: 0x100005900, symSize: 0x60 }
  - { offsetInCU: 0xFFC4, offset: 0xFFC4, size: 0x8, addend: 0x0, symName: __ZNSt3__17advanceB7v160006INS_16reverse_iteratorIPNS_12basic_stringIcNS_11char_traitsIcEENS_9allocatorIcEEEEEEllvEEvRT_T0_, symObjAddr: 0x3ECC, symBinAddr: 0x100005960, symSize: 0x50 }
  - { offsetInCU: 0x10004, offset: 0x10004, size: 0x8, addend: 0x0, symName: __ZNSt3__19__advanceB7v160006INS_16reverse_iteratorIPNS_12basic_stringIcNS_11char_traitsIcEENS_9allocatorIcEEEEEEEEvRT_NS_15iterator_traitsISA_E15difference_typeENS_26random_access_iterator_tagE, symObjAddr: 0x3F1C, symBinAddr: 0x1000059B0, symSize: 0x2C }
  - { offsetInCU: 0x1000C, offset: 0x1000C, size: 0x8, addend: 0x0, symName: __ZNSt3__116reverse_iteratorIPNS_12basic_stringIcNS_11char_traitsIcEENS_9allocatorIcEEEEEpLB7v160006El, symObjAddr: 0x3F48, symBinAddr: 0x1000059DC, symSize: 0x30 }
  - { offsetInCU: 0x10052, offset: 0x10052, size: 0x8, addend: 0x0, symName: __ZNSt3__119__debug_db_insert_cB7v160006INS_6vectorINS_5stackIcNS_5dequeIcNS_9allocatorIcEEEEEENS4_IS7_EEEEEEvPT_, symObjAddr: 0x4500, symBinAddr: 0x100005F94, symSize: 0x10 }
  - { offsetInCU: 0x1005A, offset: 0x1005A, size: 0x8, addend: 0x0, symName: __ZNSt3__117__compressed_pairIPNS_5stackIcNS_5dequeIcNS_9allocatorIcEEEEEENS3_IS6_EEEC2B7v160006IDnNS_18__default_init_tagEEEOT_OT0_, symObjAddr: 0x4510, symBinAddr: 0x100005FA4, symSize: 0x40 }
  - { offsetInCU: 0x10089, offset: 0x10089, size: 0x8, addend: 0x0, symName: __ZNSt3__112__to_addressB7v160006INS_5stackIcNS_5dequeIcNS_9allocatorIcEEEEEEEEPT_S8_, symObjAddr: 0x4834, symBinAddr: 0x1000062C8, symSize: 0x14 }
  - { offsetInCU: 0x10091, offset: 0x10091, size: 0x8, addend: 0x0, symName: __ZNSt3__16vectorINS_5stackIcNS_5dequeIcNS_9allocatorIcEEEEEENS3_IS6_EEE21_ConstructTransactionD1B7v160006Ev, symObjAddr: 0x4848, symBinAddr: 0x1000062DC, symSize: 0x2C }
  - { offsetInCU: 0x100EA, offset: 0x100EA, size: 0x8, addend: 0x0, symName: __ZNSt3__112construct_atB7v160006INS_5stackIcNS_5dequeIcNS_9allocatorIcEEEEEEJRKS6_EPS6_EEPT_SB_DpOT0_, symObjAddr: 0x48C0, symBinAddr: 0x100006354, symSize: 0x3C }
  - { offsetInCU: 0x100F2, offset: 0x100F2, size: 0x8, addend: 0x0, symName: __ZNSt3__117__compressed_pairIPNS_5stackIcNS_5dequeIcNS_9allocatorIcEEEEEENS3_IS6_EEE6secondB7v160006Ev, symObjAddr: 0x48FC, symBinAddr: 0x100006390, symSize: 0x24 }
  - { offsetInCU: 0x10163, offset: 0x10163, size: 0x8, addend: 0x0, symName: __ZNSt3__119__allocate_at_leastB7v160006INS_9allocatorINS_5stackIcNS_5dequeIcNS1_IcEEEEEEEEEENS_19__allocation_resultINS_16allocator_traitsIT_E7pointerEEERSA_m, symObjAddr: 0x4E78, symBinAddr: 0x10000690C, symSize: 0x40 }
  - { offsetInCU: 0x1016B, offset: 0x1016B, size: 0x8, addend: 0x0, symName: __ZNSt3__114__split_bufferINS_5stackIcNS_5dequeIcNS_9allocatorIcEEEEEERNS3_IS6_EEE7__allocB7v160006Ev, symObjAddr: 0x4EB8, symBinAddr: 0x10000694C, symSize: 0x28 }
  - { offsetInCU: 0x101AB, offset: 0x101AB, size: 0x8, addend: 0x0, symName: __ZNSt3__142__uninitialized_allocator_move_if_noexceptB7v160006INS_9allocatorINS_5stackIcNS_5dequeIcNS1_IcEEEEEEEENS_16reverse_iteratorIPS6_EESA_SA_EET2_RT_T0_T1_SB_, symObjAddr: 0x5104, symBinAddr: 0x100006B98, symSize: 0x12C }
  - { offsetInCU: 0x101B3, offset: 0x101B3, size: 0x8, addend: 0x0, symName: __ZNSt3__116reverse_iteratorIPNS_5stackIcNS_5dequeIcNS_9allocatorIcEEEEEEEC1B7v160006ES7_, symObjAddr: 0x5230, symBinAddr: 0x100006CC4, symSize: 0x34 }
  - { offsetInCU: 0x10250, offset: 0x10250, size: 0x8, addend: 0x0, symName: __ZNSt3__14swapB7v160006IPNS_5stackIcNS_5dequeIcNS_9allocatorIcEEEEEEEENS_9enable_ifIXaasr21is_move_constructibleIT_EE5valuesr18is_move_assignableIS9_EE5valueEvE4typeERS9_SC_, symObjAddr: 0x527C, symBinAddr: 0x100006D10, symSize: 0x3C }
  - { offsetInCU: 0x10258, offset: 0x10258, size: 0x8, addend: 0x0, symName: __ZNKSt3__16vectorINS_5stackIcNS_5dequeIcNS_9allocatorIcEEEEEENS3_IS6_EEE14__annotate_newB7v160006Em, symObjAddr: 0x52B8, symBinAddr: 0x100006D4C, symSize: 0xC8 }
  - { offsetInCU: 0x102A7, offset: 0x102A7, size: 0x8, addend: 0x0, symName: __ZNSt3__125__debug_db_invalidate_allB7v160006INS_6vectorINS_5stackIcNS_5dequeIcNS_9allocatorIcEEEEEENS4_IS7_EEEEEEvPT_, symObjAddr: 0x5380, symBinAddr: 0x100006E14, symSize: 0x10 }
  - { offsetInCU: 0x102AF, offset: 0x102AF, size: 0x8, addend: 0x0, symName: __ZNKSt3__16vectorINS_5stackIcNS_5dequeIcNS_9allocatorIcEEEEEENS3_IS6_EEE31__annotate_contiguous_containerB7v160006EPKvSA_SA_SA_, symObjAddr: 0x5390, symBinAddr: 0x100006E24, symSize: 0x20 }
  - { offsetInCU: 0x102DE, offset: 0x102DE, size: 0x8, addend: 0x0, symName: __ZNSt3__122__make_exception_guardB7v160006INS_29_AllocatorDestroyRangeReverseINS_9allocatorINS_5stackIcNS_5dequeIcNS2_IcEEEEEEEENS_16reverse_iteratorIPS7_EEEEEENS_28__exception_guard_exceptionsIT_EESE_, symObjAddr: 0x53D8, symBinAddr: 0x100006E6C, symSize: 0x4C }
  - { offsetInCU: 0x102E6, offset: 0x102E6, size: 0x8, addend: 0x0, symName: __ZNSt3__129_AllocatorDestroyRangeReverseINS_9allocatorINS_5stackIcNS_5dequeIcNS1_IcEEEEEEEENS_16reverse_iteratorIPS6_EEEC1B7v160006ERS7_RSA_SD_, symObjAddr: 0x5424, symBinAddr: 0x100006EB8, symSize: 0x44 }
  - { offsetInCU: 0x10319, offset: 0x10319, size: 0x8, addend: 0x0, symName: __ZNSt3__1neB7v160006IPNS_5stackIcNS_5dequeIcNS_9allocatorIcEEEEEES7_EEbRKNS_16reverse_iteratorIT_EERKNS8_IT0_EE, symObjAddr: 0x5468, symBinAddr: 0x100006EFC, symSize: 0x48 }
  - { offsetInCU: 0x10321, offset: 0x10321, size: 0x8, addend: 0x0, symName: __ZNSt3__116allocator_traitsINS_9allocatorINS_5stackIcNS_5dequeIcNS1_IcEEEEEEEEE9constructB7v160006IS6_JS6_EvvEEvRS7_PT_DpOT0_, symObjAddr: 0x54B0, symBinAddr: 0x100006F44, symSize: 0x30 }
  - { offsetInCU: 0x1036A, offset: 0x1036A, size: 0x8, addend: 0x0, symName: __ZNSt3__112__to_addressB7v160006INS_16reverse_iteratorIPNS_5stackIcNS_5dequeIcNS_9allocatorIcEEEEEEEEvEENS_5decayIDTclsr19__to_address_helperIT_EE6__callclsr3stdE7declvalIRKSB_EEEEE4typeESD_, symObjAddr: 0x54E0, symBinAddr: 0x100006F74, symSize: 0x24 }
  - { offsetInCU: 0x10372, offset: 0x10372, size: 0x8, addend: 0x0, symName: __ZNKSt3__116reverse_iteratorIPNS_5stackIcNS_5dequeIcNS_9allocatorIcEEEEEEEdeB7v160006Ev, symObjAddr: 0x5504, symBinAddr: 0x100006F98, symSize: 0x28 }
  - { offsetInCU: 0x103A5, offset: 0x103A5, size: 0x8, addend: 0x0, symName: __ZNSt3__112construct_atB7v160006INS_5stackIcNS_5dequeIcNS_9allocatorIcEEEEEEJS6_EPS6_EEPT_S9_DpOT0_, symObjAddr: 0x5630, symBinAddr: 0x1000070C4, symSize: 0x3C }
  - { offsetInCU: 0x103AD, offset: 0x103AD, size: 0x8, addend: 0x0, symName: __ZNSt3__15stackIcNS_5dequeIcNS_9allocatorIcEEEEEC1B7v160006EOS5_, symObjAddr: 0x566C, symBinAddr: 0x100007100, symSize: 0x34 }
  - { offsetInCU: 0x1044A, offset: 0x1044A, size: 0x8, addend: 0x0, symName: __ZNSt3__14prevB7v160006IPNS_5stackIcNS_5dequeIcNS_9allocatorIcEEEEEEEENS_9enable_ifIXsr25__is_cpp17_input_iteratorIT_EE5valueES9_E4typeES9_NS_15iterator_traitsIS9_E15difference_typeE, symObjAddr: 0x58EC, symBinAddr: 0x100007380, symSize: 0x50 }
  - { offsetInCU: 0x10452, offset: 0x10452, size: 0x8, addend: 0x0, symName: __ZNSt3__17advanceB7v160006IPNS_5stackIcNS_5dequeIcNS_9allocatorIcEEEEEEllvEEvRT_T0_, symObjAddr: 0x593C, symBinAddr: 0x1000073D0, symSize: 0x50 }
  - { offsetInCU: 0x10492, offset: 0x10492, size: 0x8, addend: 0x0, symName: __ZNSt3__19__advanceB7v160006IPNS_5stackIcNS_5dequeIcNS_9allocatorIcEEEEEEEEvRT_NS_15iterator_traitsIS8_E15difference_typeENS_26random_access_iterator_tagE, symObjAddr: 0x598C, symBinAddr: 0x100007420, symSize: 0x30 }
  - { offsetInCU: 0x1049A, offset: 0x1049A, size: 0x8, addend: 0x0, symName: __ZNSt3__128__exception_guard_exceptionsINS_29_AllocatorDestroyRangeReverseINS_9allocatorINS_5stackIcNS_5dequeIcNS2_IcEEEEEEEENS_16reverse_iteratorIPS7_EEEEED2B7v160006Ev, symObjAddr: 0x59BC, symBinAddr: 0x100007450, symSize: 0x50 }
  - { offsetInCU: 0x104E1, offset: 0x104E1, size: 0x8, addend: 0x0, symName: __ZNSt3__119__allocator_destroyB7v160006INS_9allocatorINS_5stackIcNS_5dequeIcNS1_IcEEEEEEEENS_16reverse_iteratorINS8_IPS6_EEEESB_EEvRT_T0_T1_, symObjAddr: 0x5AC0, symBinAddr: 0x100007554, symSize: 0x70 }
  - { offsetInCU: 0x104E9, offset: 0x104E9, size: 0x8, addend: 0x0, symName: __ZNSt3__116reverse_iteratorINS0_IPNS_5stackIcNS_5dequeIcNS_9allocatorIcEEEEEEEEEC1B7v160006ES8_, symObjAddr: 0x5B30, symBinAddr: 0x1000075C4, symSize: 0x3C }
  - { offsetInCU: 0x1054B, offset: 0x1054B, size: 0x8, addend: 0x0, symName: __ZNSt3__1neB7v160006INS_16reverse_iteratorIPNS_5stackIcNS_5dequeIcNS_9allocatorIcEEEEEEEES9_EEbRKNS1_IT_EERKNS1_IT0_EE, symObjAddr: 0x5B6C, symBinAddr: 0x100007600, symSize: 0x60 }
  - { offsetInCU: 0x10553, offset: 0x10553, size: 0x8, addend: 0x0, symName: __ZNSt3__116allocator_traitsINS_9allocatorINS_5stackIcNS_5dequeIcNS1_IcEEEEEEEEE7destroyB7v160006IS6_vvEEvRS7_PT_, symObjAddr: 0x5BCC, symBinAddr: 0x100007660, symSize: 0x28 }
  - { offsetInCU: 0x1059C, offset: 0x1059C, size: 0x8, addend: 0x0, symName: __ZNSt3__112__to_addressB7v160006INS_16reverse_iteratorINS1_IPNS_5stackIcNS_5dequeIcNS_9allocatorIcEEEEEEEEEEvEENS_5decayIDTclsr19__to_address_helperIT_EE6__callclsr3stdE7declvalIRKSC_EEEEE4typeESE_, symObjAddr: 0x5BF4, symBinAddr: 0x100007688, symSize: 0x24 }
  - { offsetInCU: 0x105A4, offset: 0x105A4, size: 0x8, addend: 0x0, symName: __ZNSt3__116reverse_iteratorINS0_IPNS_5stackIcNS_5dequeIcNS_9allocatorIcEEEEEEEEEppB7v160006Ev, symObjAddr: 0x5C18, symBinAddr: 0x1000076AC, symSize: 0x30 }
  - { offsetInCU: 0x105D7, offset: 0x105D7, size: 0x8, addend: 0x0, symName: __ZNSt3__110destroy_atB7v160006INS_5stackIcNS_5dequeIcNS_9allocatorIcEEEEEELi0EEEvPT_, symObjAddr: 0x5C6C, symBinAddr: 0x100007700, symSize: 0x24 }
  - { offsetInCU: 0x105DF, offset: 0x105DF, size: 0x8, addend: 0x0, symName: __ZNSt3__112__destroy_atB7v160006INS_5stackIcNS_5dequeIcNS_9allocatorIcEEEEEELi0EEEvPT_, symObjAddr: 0x5C90, symBinAddr: 0x100007724, symSize: 0x24 }
  - { offsetInCU: 0x10613, offset: 0x10613, size: 0x8, addend: 0x0, symName: __ZNSt3__112__destroy_atB7v160006INS_5stackIcNS_5dequeIcNS_9allocatorIcEEEEEELi0EEEvPT_, symObjAddr: 0x5C90, symBinAddr: 0x100007724, symSize: 0x24 }
  - { offsetInCU: 0x1061B, offset: 0x1061B, size: 0x8, addend: 0x0, symName: __ZNSt3__119__to_address_helperINS_16reverse_iteratorINS1_IPNS_5stackIcNS_5dequeIcNS_9allocatorIcEEEEEEEEEEvE6__callB7v160006ERKSA_, symObjAddr: 0x5CB4, symBinAddr: 0x100007748, symSize: 0x38 }
  - { offsetInCU: 0x1067B, offset: 0x1067B, size: 0x8, addend: 0x0, symName: __ZNSt3__14prevB7v160006INS_16reverse_iteratorIPNS_5stackIcNS_5dequeIcNS_9allocatorIcEEEEEEEEEENS_9enable_ifIXsr25__is_cpp17_input_iteratorIT_EE5valueESB_E4typeESB_NS_15iterator_traitsISB_E15difference_typeE, symObjAddr: 0x5D38, symBinAddr: 0x1000077CC, symSize: 0x60 }
  - { offsetInCU: 0x10683, offset: 0x10683, size: 0x8, addend: 0x0, symName: __ZNSt3__17advanceB7v160006INS_16reverse_iteratorIPNS_5stackIcNS_5dequeIcNS_9allocatorIcEEEEEEEEllvEEvRT_T0_, symObjAddr: 0x5D98, symBinAddr: 0x10000782C, symSize: 0x50 }
  - { offsetInCU: 0x106C3, offset: 0x106C3, size: 0x8, addend: 0x0, symName: __ZNSt3__19__advanceB7v160006INS_16reverse_iteratorIPNS_5stackIcNS_5dequeIcNS_9allocatorIcEEEEEEEEEEvRT_NS_15iterator_traitsISA_E15difference_typeENS_26random_access_iterator_tagE, symObjAddr: 0x5DE8, symBinAddr: 0x10000787C, symSize: 0x2C }
  - { offsetInCU: 0x106CB, offset: 0x106CB, size: 0x8, addend: 0x0, symName: __ZNSt3__116reverse_iteratorIPNS_5stackIcNS_5dequeIcNS_9allocatorIcEEEEEEEpLB7v160006El, symObjAddr: 0x5E14, symBinAddr: 0x1000078A8, symSize: 0x30 }
  - { offsetInCU: 0x10711, offset: 0x10711, size: 0x8, addend: 0x0, symName: __ZNSt3__119__debug_db_insert_cB7v160006INS_6vectorINS_12basic_stringIcNS_11char_traitsIcEENS_9allocatorIcEEEENS5_IS7_EEEEEEvPT_, symObjAddr: 0x61B0, symBinAddr: 0x100007C44, symSize: 0x10 }
  - { offsetInCU: 0x10719, offset: 0x10719, size: 0x8, addend: 0x0, symName: __ZNSt3__117__compressed_pairIPNS_12basic_stringIcNS_11char_traitsIcEENS_9allocatorIcEEEENS4_IS6_EEEC2B7v160006IDnNS_18__default_init_tagEEEOT_OT0_, symObjAddr: 0x61C0, symBinAddr: 0x100007C54, symSize: 0x40 }
  - { offsetInCU: 0x10748, offset: 0x10748, size: 0x8, addend: 0x0, symName: __ZNSt3__118__debug_db_erase_cB7v160006INS_6vectorINS_12basic_stringIcNS_11char_traitsIcEENS_9allocatorIcEEEENS5_IS7_EEEEEEvPT_, symObjAddr: 0x63A0, symBinAddr: 0x100007E34, symSize: 0x10 }
  - { offsetInCU: 0x10750, offset: 0x10750, size: 0x8, addend: 0x0, symName: __ZNSt3__16vectorINS_12basic_stringIcNS_11char_traitsIcEENS_9allocatorIcEEEENS4_IS6_EEE7__clearB7v160006Ev, symObjAddr: 0x63B0, symBinAddr: 0x100007E44, symSize: 0x28 }
  - { offsetInCU: 0x1077F, offset: 0x1077F, size: 0x8, addend: 0x0, symName: __ZNSt3__118__debug_db_erase_cB7v160006INS_6vectorINS_5stackIcNS_5dequeIcNS_9allocatorIcEEEEEENS4_IS7_EEEEEEvPT_, symObjAddr: 0x650C, symBinAddr: 0x100007FA0, symSize: 0x10 }
  - { offsetInCU: 0x10787, offset: 0x10787, size: 0x8, addend: 0x0, symName: __ZNSt3__16vectorINS_5stackIcNS_5dequeIcNS_9allocatorIcEEEEEENS3_IS6_EEE7__clearB7v160006Ev, symObjAddr: 0x651C, symBinAddr: 0x100007FB0, symSize: 0x28 }
  - { offsetInCU: 0x107D3, offset: 0x107D3, size: 0x8, addend: 0x0, symName: __ZNSt3__18distanceB7v160006INS_16__deque_iteratorIcPKcRS2_PKS3_lLl4096EEEEENS_15iterator_traitsIT_E15difference_typeES9_S9_, symObjAddr: 0x6E08, symBinAddr: 0x10000889C, symSize: 0x4C }
  - { offsetInCU: 0x107DB, offset: 0x107DB, size: 0x8, addend: 0x0, symName: __ZNKSt3__15dequeIcNS_9allocatorIcEEE12__back_spareB7v160006Ev, symObjAddr: 0x6E54, symBinAddr: 0x1000088E8, symSize: 0x54 }
  - { offsetInCU: 0x1081B, offset: 0x1081B, size: 0x8, addend: 0x0, symName: __ZNSt3__1neB7v160006ERKNS_5dequeIcNS_9allocatorIcEEE13__deque_rangeES6_, symObjAddr: 0x7560, symBinAddr: 0x100008FF4, symSize: 0x34 }
  - { offsetInCU: 0x10823, offset: 0x10823, size: 0x8, addend: 0x0, symName: __ZNKSt3__15dequeIcNS_9allocatorIcEEE13__deque_rangedeB7v160006Ev, symObjAddr: 0x7594, symBinAddr: 0x100009028, symSize: 0x7C }
  - { offsetInCU: 0x1085D, offset: 0x1085D, size: 0x8, addend: 0x0, symName: __ZNSt3__112__to_addressB7v160006IcEEPT_S2_, symObjAddr: 0x767C, symBinAddr: 0x100009110, symSize: 0x14 }
  - { offsetInCU: 0x10865, offset: 0x10865, size: 0x8, addend: 0x0, symName: __ZNKSt3__116__deque_iteratorIcPKcRS1_PKS2_lLl4096EEdeB7v160006Ev, symObjAddr: 0x7690, symBinAddr: 0x100009124, symSize: 0x18 }
  - { offsetInCU: 0x10898, offset: 0x10898, size: 0x8, addend: 0x0, symName: __ZNSt3__110__distanceB7v160006INS_16__deque_iteratorIcPKcRS2_PKS3_lLl4096EEEEENS_15iterator_traitsIT_E15difference_typeES9_S9_NS_26random_access_iterator_tagE, symObjAddr: 0x77A0, symBinAddr: 0x100009234, symSize: 0x38 }
  - { offsetInCU: 0x108A0, offset: 0x108A0, size: 0x8, addend: 0x0, symName: __ZNSt3__1miB7v160006ERKNS_16__deque_iteratorIcPKcRS1_PKS2_lLl4096EEES8_, symObjAddr: 0x77D8, symBinAddr: 0x10000926C, symSize: 0x9C }
  - { offsetInCU: 0x108EA, offset: 0x108EA, size: 0x8, addend: 0x0, symName: __ZNSt3__1miB7v160006ERKNS_16__deque_iteratorIcPKcRS1_PKS2_lLl4096EEES8_, symObjAddr: 0x77D8, symBinAddr: 0x10000926C, symSize: 0x9C }
  - { offsetInCU: 0x108F2, offset: 0x108F2, size: 0x8, addend: 0x0, symName: __ZNSt3__1neB7v160006ERKNS_16__deque_iteratorIcPKcRS1_PKS2_lLl4096EEES8_, symObjAddr: 0x7874, symBinAddr: 0x100009308, symSize: 0x34 }
  - { offsetInCU: 0x1092C, offset: 0x1092C, size: 0x8, addend: 0x0, symName: __ZNSt3__1neB7v160006ERKNS_16__deque_iteratorIcPKcRS1_PKS2_lLl4096EEES8_, symObjAddr: 0x7874, symBinAddr: 0x100009308, symSize: 0x34 }
  - { offsetInCU: 0x10934, offset: 0x10934, size: 0x8, addend: 0x0, symName: __ZNSt3__1eqB7v160006ERKNS_16__deque_iteratorIcPKcRS1_PKS2_lLl4096EEES8_, symObjAddr: 0x78A8, symBinAddr: 0x10000933C, symSize: 0x30 }
  - { offsetInCU: 0x1096E, offset: 0x1096E, size: 0x8, addend: 0x0, symName: __ZNSt3__1eqB7v160006ERKNS_16__deque_iteratorIcPKcRS1_PKS2_lLl4096EEES8_, symObjAddr: 0x78A8, symBinAddr: 0x10000933C, symSize: 0x30 }
  - { offsetInCU: 0x10976, offset: 0x10976, size: 0x8, addend: 0x0, symName: __ZNKSt3__15dequeIcNS_9allocatorIcEEE10__capacityB7v160006Ev, symObjAddr: 0x78D8, symBinAddr: 0x10000936C, symSize: 0x60 }
  - { offsetInCU: 0x109B1, offset: 0x109B1, size: 0x8, addend: 0x0, symName: __ZNSt3__14swapB7v160006IPPcEENS_9enable_ifIXaasr21is_move_constructibleIT_EE5valuesr18is_move_assignableIS4_EE5valueEvE4typeERS4_S7_, symObjAddr: 0x88A8, symBinAddr: 0x10000A33C, symSize: 0x3C }
  - { offsetInCU: 0x109B9, offset: 0x109B9, size: 0x8, addend: 0x0, symName: __ZNSt3__114__split_bufferIPcRNS_9allocatorIS1_EEE9__end_capB7v160006Ev, symObjAddr: 0x88E4, symBinAddr: 0x10000A378, symSize: 0x28 }
  - { offsetInCU: 0x10A08, offset: 0x10A08, size: 0x8, addend: 0x0, symName: __ZNSt3__14moveB7v160006IPPcS2_EET0_T_S4_S3_, symObjAddr: 0x8938, symBinAddr: 0x10000A3CC, symSize: 0x40 }
  - { offsetInCU: 0x10A10, offset: 0x10A10, size: 0x8, addend: 0x0, symName: __ZNSt3__114__split_bufferIPcRNS_9allocatorIS1_EEE18__construct_at_endINS_13move_iteratorIPS1_EEEENS_9enable_ifIXsr27__is_cpp17_forward_iteratorIT_EE5valueEvE4typeESB_SB_, symObjAddr: 0x8978, symBinAddr: 0x10000A40C, symSize: 0xFC }
  - { offsetInCU: 0x10A67, offset: 0x10A67, size: 0x8, addend: 0x0, symName: __ZNSt3__16__moveB7v160006INS_17_ClassicAlgPolicyEPPcS3_S3_EENS_4pairIT0_T2_EES5_T1_S6_, symObjAddr: 0x8AD8, symBinAddr: 0x10000A56C, symSize: 0x44 }
  - { offsetInCU: 0x10A6F, offset: 0x10A6F, size: 0x8, addend: 0x0, symName: __ZNSt3__123__dispatch_copy_or_moveB7v160006INS_17_ClassicAlgPolicyENS_11__move_loopIS1_EENS_14__move_trivialEPPcS6_S6_EENS_4pairIT2_T4_EES8_T3_S9_, symObjAddr: 0x8B1C, symBinAddr: 0x10000A5B0, symSize: 0x44 }
  - { offsetInCU: 0x10AD8, offset: 0x10AD8, size: 0x8, addend: 0x0, symName: __ZNSt3__123__dispatch_copy_or_moveB7v160006INS_17_ClassicAlgPolicyENS_11__move_loopIS1_EENS_14__move_trivialEPPcS6_S6_EENS_4pairIT2_T4_EES8_T3_S9_, symObjAddr: 0x8B1C, symBinAddr: 0x10000A5B0, symSize: 0x44 }
  - { offsetInCU: 0x10AE0, offset: 0x10AE0, size: 0x8, addend: 0x0, symName: __ZNSt3__121__unwrap_and_dispatchB7v160006INS_10__overloadINS_11__move_loopINS_17_ClassicAlgPolicyEEENS_14__move_trivialEEEPPcS8_S8_Li0EEENS_4pairIT0_T2_EESA_T1_SB_, symObjAddr: 0x8B60, symBinAddr: 0x10000A5F4, symSize: 0xB4 }
  - { offsetInCU: 0x10B5B, offset: 0x10B5B, size: 0x8, addend: 0x0, symName: __ZNSt3__121__unwrap_and_dispatchB7v160006INS_10__overloadINS_11__move_loopINS_17_ClassicAlgPolicyEEENS_14__move_trivialEEEPPcS8_S8_Li0EEENS_4pairIT0_T2_EESA_T1_SB_, symObjAddr: 0x8B60, symBinAddr: 0x10000A5F4, symSize: 0xB4 }
  - { offsetInCU: 0x10B63, offset: 0x10B63, size: 0x8, addend: 0x0, symName: __ZNSt3__114__unwrap_rangeB7v160006IPPcS2_EEDaT_T0_, symObjAddr: 0x8C14, symBinAddr: 0x10000A6A8, symSize: 0x3C }
  - { offsetInCU: 0x10BEE, offset: 0x10BEE, size: 0x8, addend: 0x0, symName: __ZNSt3__114__unwrap_rangeB7v160006IPPcS2_EEDaT_T0_, symObjAddr: 0x8C14, symBinAddr: 0x10000A6A8, symSize: 0x3C }
  - { offsetInCU: 0x10BF6, offset: 0x10BF6, size: 0x8, addend: 0x0, symName: __ZNKSt3__114__move_trivialclB7v160006IPcS2_Li0EEENS_4pairIPT_PT0_EES5_S5_S7_, symObjAddr: 0x8C50, symBinAddr: 0x10000A6E4, symSize: 0x48 }
  - { offsetInCU: 0x10DD2, offset: 0x10DD2, size: 0x8, addend: 0x0, symName: __ZNSt3__113__unwrap_iterB7v160006IPPcNS_18__unwrap_iter_implIS2_Lb1EEELi0EEEDTclsrT0_8__unwrapclsr3stdE7declvalIT_EEEES6_, symObjAddr: 0x8C98, symBinAddr: 0x10000A72C, symSize: 0x24 }
  - { offsetInCU: 0x10DDA, offset: 0x10DDA, size: 0x8, addend: 0x0, symName: __ZNSt3__19make_pairB7v160006IPPcS2_EENS_4pairINS_18__unwrap_ref_decayIT_E4typeENS4_IT0_E4typeEEEOS5_OS8_, symObjAddr: 0x8CBC, symBinAddr: 0x10000A750, symSize: 0x38 }
  - { offsetInCU: 0x10E1B, offset: 0x10E1B, size: 0x8, addend: 0x0, symName: __ZNSt3__19make_pairB7v160006IPPcS2_EENS_4pairINS_18__unwrap_ref_decayIT_E4typeENS4_IT0_E4typeEEEOS5_OS8_, symObjAddr: 0x8CBC, symBinAddr: 0x10000A750, symSize: 0x38 }
  - { offsetInCU: 0x10E23, offset: 0x10E23, size: 0x8, addend: 0x0, symName: __ZNSt3__114__rewrap_rangeB7v160006IPPcS2_S2_EET0_S3_T1_, symObjAddr: 0x8CF4, symBinAddr: 0x10000A788, symSize: 0x2C }
  - { offsetInCU: 0x10E6F, offset: 0x10E6F, size: 0x8, addend: 0x0, symName: __ZNSt3__114__rewrap_rangeB7v160006IPPcS2_S2_EET0_S3_T1_, symObjAddr: 0x8CF4, symBinAddr: 0x10000A788, symSize: 0x2C }
  - { offsetInCU: 0x10E77, offset: 0x10E77, size: 0x8, addend: 0x0, symName: __ZNSt3__113__rewrap_iterB7v160006IPPcS2_NS_18__unwrap_iter_implIS2_Lb1EEEEET_S5_T0_, symObjAddr: 0x8D20, symBinAddr: 0x10000A7B4, symSize: 0x3C }
  - { offsetInCU: 0x10EC9, offset: 0x10EC9, size: 0x8, addend: 0x0, symName: __ZNSt3__113__rewrap_iterB7v160006IPPcS2_NS_18__unwrap_iter_implIS2_Lb1EEEEET_S5_T0_, symObjAddr: 0x8D20, symBinAddr: 0x10000A7B4, symSize: 0x3C }
  - { offsetInCU: 0x10ED1, offset: 0x10ED1, size: 0x8, addend: 0x0, symName: __ZNSt3__119__unwrap_range_implIPPcS2_E8__unwrapB7v160006ES2_S2_, symObjAddr: 0x8D5C, symBinAddr: 0x10000A7F0, symSize: 0x58 }
  - { offsetInCU: 0x10F77, offset: 0x10F77, size: 0x8, addend: 0x0, symName: __ZNSt3__119__copy_trivial_implB7v160006IPcS1_EENS_4pairIPT_PT0_EES4_S4_S6_, symObjAddr: 0x8E24, symBinAddr: 0x10000A8B8, symSize: 0x84 }
  - { offsetInCU: 0x10F7F, offset: 0x10F7F, size: 0x8, addend: 0x0, symName: __ZNSt3__19make_pairB7v160006IRPPcS2_EENS_4pairINS_18__unwrap_ref_decayIT_E4typeENS5_IT0_E4typeEEEOS6_OS9_, symObjAddr: 0x8EA8, symBinAddr: 0x10000A93C, symSize: 0x38 }
  - { offsetInCU: 0x10FE4, offset: 0x10FE4, size: 0x8, addend: 0x0, symName: __ZNSt3__19make_pairB7v160006IRPPcS2_EENS_4pairINS_18__unwrap_ref_decayIT_E4typeENS5_IT0_E4typeEEEOS6_OS9_, symObjAddr: 0x8EA8, symBinAddr: 0x10000A93C, symSize: 0x38 }
  - { offsetInCU: 0x10FEC, offset: 0x10FEC, size: 0x8, addend: 0x0, symName: __ZNSt3__14pairIPPcS2_EC1B7v160006IRS2_S2_LPv0EEEOT_OT0_, symObjAddr: 0x8EE0, symBinAddr: 0x10000A974, symSize: 0x3C }
  - { offsetInCU: 0x11090, offset: 0x11090, size: 0x8, addend: 0x0, symName: __ZNSt3__18distanceB7v160006INS_13move_iteratorIPPcEEEENS_15iterator_traitsIT_E15difference_typeES6_S6_, symObjAddr: 0x8FF0, symBinAddr: 0x10000AA84, symSize: 0x3C }
  - { offsetInCU: 0x11098, offset: 0x11098, size: 0x8, addend: 0x0, symName: __ZNSt3__114__split_bufferIPcRNS_9allocatorIS1_EEE21_ConstructTransactionC1B7v160006EPPS1_m, symObjAddr: 0x902C, symBinAddr: 0x10000AAC0, symSize: 0x3C }
  - { offsetInCU: 0x110D8, offset: 0x110D8, size: 0x8, addend: 0x0, symName: __ZNSt3__110__distanceB7v160006INS_13move_iteratorIPPcEEEENS_15iterator_traitsIT_E15difference_typeES6_S6_NS_26random_access_iterator_tagE, symObjAddr: 0x9138, symBinAddr: 0x10000ABCC, symSize: 0x30 }
  - { offsetInCU: 0x110E0, offset: 0x110E0, size: 0x8, addend: 0x0, symName: __ZNSt3__1miB7v160006IPPcS2_EEDTmicldtfp_4baseEcldtfp0_4baseEERKNS_13move_iteratorIT_EERKNS4_IT0_EE, symObjAddr: 0x9168, symBinAddr: 0x10000ABFC, symSize: 0x4C }
  - { offsetInCU: 0x1112A, offset: 0x1112A, size: 0x8, addend: 0x0, symName: __ZNSt3__1miB7v160006IPPcS2_EEDTmicldtfp_4baseEcldtfp0_4baseEERKNS_13move_iteratorIT_EERKNS4_IT0_EE, symObjAddr: 0x9168, symBinAddr: 0x10000ABFC, symSize: 0x4C }
  - { offsetInCU: 0x11132, offset: 0x11132, size: 0x8, addend: 0x0, symName: __ZNKRSt3__113move_iteratorIPPcE4baseB7v160006Ev, symObjAddr: 0x91B4, symBinAddr: 0x10000AC48, symSize: 0x14 }
  - { offsetInCU: 0x111A4, offset: 0x111A4, size: 0x8, addend: 0x0, symName: __ZNSt3__112construct_atB7v160006IPcJS1_EPS1_EEPT_S4_DpOT0_, symObjAddr: 0x920C, symBinAddr: 0x10000ACA0, symSize: 0x2C }
  - { offsetInCU: 0x111AC, offset: 0x111AC, size: 0x8, addend: 0x0, symName: __ZNSt3__117__compressed_pairIPPcRNS_9allocatorIS1_EEE6secondB7v160006Ev, symObjAddr: 0x9238, symBinAddr: 0x10000ACCC, symSize: 0x28 }
  - { offsetInCU: 0x1121E, offset: 0x1121E, size: 0x8, addend: 0x0, symName: __ZNSt3__112construct_atB7v160006IPcJRKS1_EPS1_EEPT_S6_DpOT0_, symObjAddr: 0x92D4, symBinAddr: 0x10000AD68, symSize: 0x2C }
  - { offsetInCU: 0x11226, offset: 0x11226, size: 0x8, addend: 0x0, symName: __ZNSt3__19allocatorIcE8allocateB7v160006Em, symObjAddr: 0x9300, symBinAddr: 0x10000AD94, symSize: 0x58 }
  - { offsetInCU: 0x11298, offset: 0x11298, size: 0x8, addend: 0x0, symName: __ZNSt3__113move_backwardB7v160006IPPcS2_EET0_T_S4_S3_, symObjAddr: 0x9380, symBinAddr: 0x10000AE14, symSize: 0x40 }
  - { offsetInCU: 0x112A0, offset: 0x112A0, size: 0x8, addend: 0x0, symName: __ZNSt3__115__move_backwardB7v160006INS_17_ClassicAlgPolicyEPPcS3_S3_EENS_4pairIT0_T2_EES5_T1_S6_, symObjAddr: 0x93C0, symBinAddr: 0x10000AE54, symSize: 0x44 }
  - { offsetInCU: 0x112F7, offset: 0x112F7, size: 0x8, addend: 0x0, symName: __ZNSt3__115__move_backwardB7v160006INS_17_ClassicAlgPolicyEPPcS3_S3_EENS_4pairIT0_T2_EES5_T1_S6_, symObjAddr: 0x93C0, symBinAddr: 0x10000AE54, symSize: 0x44 }
  - { offsetInCU: 0x112FF, offset: 0x112FF, size: 0x8, addend: 0x0, symName: __ZNSt3__123__dispatch_copy_or_moveB7v160006INS_17_ClassicAlgPolicyENS_20__move_backward_loopIS1_EENS_23__move_backward_trivialEPPcS6_S6_EENS_4pairIT2_T4_EES8_T3_S9_, symObjAddr: 0x9404, symBinAddr: 0x10000AE98, symSize: 0x44 }
  - { offsetInCU: 0x11368, offset: 0x11368, size: 0x8, addend: 0x0, symName: __ZNSt3__123__dispatch_copy_or_moveB7v160006INS_17_ClassicAlgPolicyENS_20__move_backward_loopIS1_EENS_23__move_backward_trivialEPPcS6_S6_EENS_4pairIT2_T4_EES8_T3_S9_, symObjAddr: 0x9404, symBinAddr: 0x10000AE98, symSize: 0x44 }
  - { offsetInCU: 0x11370, offset: 0x11370, size: 0x8, addend: 0x0, symName: __ZNSt3__121__unwrap_and_dispatchB7v160006INS_10__overloadINS_20__move_backward_loopINS_17_ClassicAlgPolicyEEENS_23__move_backward_trivialEEEPPcS8_S8_Li0EEENS_4pairIT0_T2_EESA_T1_SB_, symObjAddr: 0x9448, symBinAddr: 0x10000AEDC, symSize: 0xB4 }
  - { offsetInCU: 0x113EB, offset: 0x113EB, size: 0x8, addend: 0x0, symName: __ZNSt3__121__unwrap_and_dispatchB7v160006INS_10__overloadINS_20__move_backward_loopINS_17_ClassicAlgPolicyEEENS_23__move_backward_trivialEEEPPcS8_S8_Li0EEENS_4pairIT0_T2_EESA_T1_SB_, symObjAddr: 0x9448, symBinAddr: 0x10000AEDC, symSize: 0xB4 }
  - { offsetInCU: 0x113F3, offset: 0x113F3, size: 0x8, addend: 0x0, symName: __ZNKSt3__123__move_backward_trivialclB7v160006IPcS2_Li0EEENS_4pairIPT_PT0_EES5_S5_S7_, symObjAddr: 0x94FC, symBinAddr: 0x10000AF90, symSize: 0x48 }
  - { offsetInCU: 0x114C7, offset: 0x114C7, size: 0x8, addend: 0x0, symName: __ZNSt3__128__copy_backward_trivial_implB7v160006IPcS1_EENS_4pairIPT_PT0_EES4_S4_S6_, symObjAddr: 0x9544, symBinAddr: 0x10000AFD8, symSize: 0x94 }
  - { offsetInCU: 0x114CF, offset: 0x114CF, size: 0x8, addend: 0x0, symName: __ZNSt3__19make_pairB7v160006IRPPcS3_EENS_4pairINS_18__unwrap_ref_decayIT_E4typeENS5_IT0_E4typeEEEOS6_OS9_, symObjAddr: 0x95D8, symBinAddr: 0x10000B06C, symSize: 0x38 }
  - { offsetInCU: 0x11534, offset: 0x11534, size: 0x8, addend: 0x0, symName: __ZNSt3__19make_pairB7v160006IRPPcS3_EENS_4pairINS_18__unwrap_ref_decayIT_E4typeENS5_IT0_E4typeEEEOS6_OS9_, symObjAddr: 0x95D8, symBinAddr: 0x10000B06C, symSize: 0x38 }
  - { offsetInCU: 0x1153C, offset: 0x1153C, size: 0x8, addend: 0x0, symName: __ZNSt3__14pairIPPcS2_EC1B7v160006IRS2_S5_LPv0EEEOT_OT0_, symObjAddr: 0x9610, symBinAddr: 0x10000B0A4, symSize: 0x3C }
  - { offsetInCU: 0x11588, offset: 0x11588, size: 0x8, addend: 0x0, symName: __ZNSt3__119__allocate_at_leastB7v160006INS_9allocatorIPcEEEENS_19__allocation_resultINS_16allocator_traitsIT_E7pointerEEERS6_m, symObjAddr: 0x9790, symBinAddr: 0x10000B224, symSize: 0x40 }
  - { offsetInCU: 0x11590, offset: 0x11590, size: 0x8, addend: 0x0, symName: __ZNSt3__117__compressed_pairIPPcRNS_9allocatorIS1_EEEC2B7v160006IDnS5_EEOT_OT0_, symObjAddr: 0x97D0, symBinAddr: 0x10000B264, symSize: 0x48 }
  - { offsetInCU: 0x115D0, offset: 0x115D0, size: 0x8, addend: 0x0, symName: __ZNSt3__1eqB7v160006ERKNS_5dequeIcNS_9allocatorIcEEE13__deque_rangeES6_, symObjAddr: 0x9C04, symBinAddr: 0x10000B698, symSize: 0x30 }
  - { offsetInCU: 0x115D8, offset: 0x115D8, size: 0x8, addend: 0x0, symName: __ZNSt3__15dequeIcNS_9allocatorIcEEE19__deque_block_rangeC1B7v160006EPcS5_, symObjAddr: 0x9C34, symBinAddr: 0x10000B6C8, symSize: 0x3C }
  - { offsetInCU: 0x11638, offset: 0x11638, size: 0x8, addend: 0x0, symName: __ZNSt3__112construct_atB7v160006IcJRKcEPcEEPT_S5_DpOT0_, symObjAddr: 0x9CE4, symBinAddr: 0x10000B778, symSize: 0x2C }
  - { offsetInCU: 0x11640, offset: 0x11640, size: 0x8, addend: 0x0, symName: __ZNSt3__15dequeIcNS_9allocatorIcEEE21_ConstructTransactionD2B7v160006Ev, symObjAddr: 0x9D10, symBinAddr: 0x10000B7A4, symSize: 0x54 }
  - { offsetInCU: 0x116E7, offset: 0x116E7, size: 0x8, addend: 0x0, symName: __ZNSt3__110destroy_atB7v160006INS_4pairIKciEELi0EEEvPT_, symObjAddr: 0xA3B8, symBinAddr: 0x10000BE4C, symSize: 0x24 }
  - { offsetInCU: 0x116EF, offset: 0x116EF, size: 0x8, addend: 0x0, symName: __ZNSt3__112__destroy_atB7v160006INS_4pairIKciEELi0EEEvPT_, symObjAddr: 0xA3DC, symBinAddr: 0x10000BE70, symSize: 0x10 }
  - { offsetInCU: 0x11723, offset: 0x11723, size: 0x8, addend: 0x0, symName: __ZNSt3__112__destroy_atB7v160006INS_4pairIKciEELi0EEEvPT_, symObjAddr: 0xA3DC, symBinAddr: 0x10000BE70, symSize: 0x10 }
  - { offsetInCU: 0x1172B, offset: 0x1172B, size: 0x8, addend: 0x0, symName: __ZNSt3__112__value_typeIciE11__get_valueB7v160006Ev, symObjAddr: 0xA3EC, symBinAddr: 0x10000BE80, symSize: 0x24 }
  - { offsetInCU: 0x11760, offset: 0x11760, size: 0x8, addend: 0x0, symName: __ZNSt3__17launderB7v160006INS_4pairIKciEEEEPT_S5_, symObjAddr: 0xA410, symBinAddr: 0x10000BEA4, symSize: 0x24 }
  - { offsetInCU: 0x11768, offset: 0x11768, size: 0x8, addend: 0x0, symName: __ZNSt3__19__launderB7v160006INS_4pairIKciEEEEPT_S5_, symObjAddr: 0xA434, symBinAddr: 0x10000BEC8, symSize: 0x14 }
  - { offsetInCU: 0x1179C, offset: 0x1179C, size: 0x8, addend: 0x0, symName: __ZNSt3__19__launderB7v160006INS_4pairIKciEEEEPT_S5_, symObjAddr: 0xA434, symBinAddr: 0x10000BEC8, symSize: 0x14 }
  - { offsetInCU: 0x117A4, offset: 0x117A4, size: 0x8, addend: 0x0, symName: __ZNSt3__19allocatorINS_11__tree_nodeINS_12__value_typeIciEEPvEEE10deallocateB7v160006EPS5_m, symObjAddr: 0xA448, symBinAddr: 0x10000BEDC, symSize: 0x44 }
  - { offsetInCU: 0x11816, offset: 0x11816, size: 0x8, addend: 0x0, symName: __ZNSt3__116forward_as_tupleB7v160006IJRKcEEENS_5tupleIJDpOT_EEES6_, symObjAddr: 0xA688, symBinAddr: 0x10000C11C, symSize: 0x2C }
  - { offsetInCU: 0x1181E, offset: 0x1181E, size: 0x8, addend: 0x0, symName: __ZNSt3__116forward_as_tupleB7v160006IJEEENS_5tupleIJDpOT_EEES4_, symObjAddr: 0xA6B4, symBinAddr: 0x10000C148, symSize: 0x4 }
  - { offsetInCU: 0x11854, offset: 0x11854, size: 0x8, addend: 0x0, symName: __ZNSt3__116forward_as_tupleB7v160006IJEEENS_5tupleIJDpOT_EEES4_, symObjAddr: 0xA6B4, symBinAddr: 0x10000C148, symSize: 0x4 }
  - { offsetInCU: 0x1185C, offset: 0x1185C, size: 0x8, addend: 0x0, symName: __ZNKSt3__115__tree_iteratorINS_12__value_typeIciEEPNS_11__tree_nodeIS2_PvEElEptB7v160006Ev, symObjAddr: 0xA6B8, symBinAddr: 0x10000C14C, symSize: 0x2C }
  - { offsetInCU: 0x1187E, offset: 0x1187E, size: 0x8, addend: 0x0, symName: __ZNSt3__17launderB7v160006IKNS_4pairIKciEEEEPT_S6_, symObjAddr: 0xACD0, symBinAddr: 0x10000C764, symSize: 0x24 }
  - { offsetInCU: 0x11886, offset: 0x11886, size: 0x8, addend: 0x0, symName: __ZNSt3__19__launderB7v160006IKNS_4pairIKciEEEEPT_S6_, symObjAddr: 0xACF4, symBinAddr: 0x10000C788, symSize: 0x14 }
  - { offsetInCU: 0x118BA, offset: 0x118BA, size: 0x8, addend: 0x0, symName: __ZNSt3__19__launderB7v160006IKNS_4pairIKciEEEEPT_S6_, symObjAddr: 0xACF4, symBinAddr: 0x10000C788, symSize: 0x14 }
  - { offsetInCU: 0x118C2, offset: 0x118C2, size: 0x8, addend: 0x0, symName: __ZNSt3__116allocator_traitsINS_9allocatorINS_11__tree_nodeINS_12__value_typeIciEEPvEEEEE8allocateB7v160006ERS7_m, symObjAddr: 0xAD08, symBinAddr: 0x10000C79C, symSize: 0x2C }
  - { offsetInCU: 0x1193B, offset: 0x1193B, size: 0x8, addend: 0x0, symName: __ZNSt3__112construct_atB7v160006INS_4pairIKciEEJRKNS_21piecewise_construct_tENS_5tupleIJRS2_EEENS7_IJEEEEPS3_EEPT_SD_DpOT0_, symObjAddr: 0xB014, symBinAddr: 0x10000CAA8, symSize: 0x50 }
  - { offsetInCU: 0x11943, offset: 0x11943, size: 0x8, addend: 0x0, symName: __ZNSt3__14pairIKciEC1B7v160006IJRS1_EJEEENS_21piecewise_construct_tENS_5tupleIJDpT_EEENS6_IJDpT0_EEE, symObjAddr: 0xB064, symBinAddr: 0x10000CAF8, symSize: 0x44 }
  - { offsetInCU: 0x119E5, offset: 0x119E5, size: 0x8, addend: 0x0, symName: __ZNSt3__13getB7v160006ILm0EJRKcEEERNS_13tuple_elementIXT_ENS_5tupleIJDpT0_EEEE4typeERS7_, symObjAddr: 0xB12C, symBinAddr: 0x10000CBC0, symSize: 0x24 }
  - { offsetInCU: 0x119ED, offset: 0x119ED, size: 0x8, addend: 0x0, symName: __ZNSt3__112__tuple_leafILm0ERKcLb0EE3getB7v160006Ev, symObjAddr: 0xB150, symBinAddr: 0x10000CBE4, symSize: 0x18 }
  - { offsetInCU: 0x11A2D, offset: 0x11A2D, size: 0x8, addend: 0x0, symName: __ZNSt3__127__tree_balance_after_insertB7v160006IPNS_16__tree_node_baseIPvEEEEvT_S5_, symObjAddr: 0xB1DC, symBinAddr: 0x10000CC70, symSize: 0x32C }
  - { offsetInCU: 0x11A35, offset: 0x11A35, size: 0x8, addend: 0x0, symName: __ZNSt3__16__treeINS_12__value_typeIciEENS_19__map_value_compareIcS2_NS_4lessIcEELb1EEENS_9allocatorIS2_EEE4sizeB7v160006Ev, symObjAddr: 0xB508, symBinAddr: 0x10000CF9C, symSize: 0x28 }
  - { offsetInCU: 0x11AB6, offset: 0x11AB6, size: 0x8, addend: 0x0, symName: __ZNSt3__120__tree_is_left_childB7v160006IPNS_16__tree_node_baseIPvEEEEbT_, symObjAddr: 0xB548, symBinAddr: 0x10000CFDC, symSize: 0x2C }
  - { offsetInCU: 0x11ABE, offset: 0x11ABE, size: 0x8, addend: 0x0, symName: __ZNSt3__118__tree_left_rotateB7v160006IPNS_16__tree_node_baseIPvEEEEvT_, symObjAddr: 0xB574, symBinAddr: 0x10000D008, symSize: 0xD8 }
  - { offsetInCU: 0x11AF1, offset: 0x11AF1, size: 0x8, addend: 0x0, symName: __ZNSt3__118__tree_left_rotateB7v160006IPNS_16__tree_node_baseIPvEEEEvT_, symObjAddr: 0xB574, symBinAddr: 0x10000D008, symSize: 0xD8 }
  - { offsetInCU: 0x11AF9, offset: 0x11AF9, size: 0x8, addend: 0x0, symName: __ZNSt3__119__tree_right_rotateB7v160006IPNS_16__tree_node_baseIPvEEEEvT_, symObjAddr: 0xB64C, symBinAddr: 0x10000D0E0, symSize: 0xCC }
  - { offsetInCU: 0x11B38, offset: 0x11B38, size: 0x8, addend: 0x0, symName: __ZNSt3__119__tree_right_rotateB7v160006IPNS_16__tree_node_baseIPvEEEEvT_, symObjAddr: 0xB64C, symBinAddr: 0x10000D0E0, symSize: 0xCC }
  - { offsetInCU: 0x11B40, offset: 0x11B40, size: 0x8, addend: 0x0, symName: __ZNSt3__116__tree_node_baseIPvE12__set_parentB7v160006EPS2_, symObjAddr: 0xB718, symBinAddr: 0x10000D1AC, symSize: 0x20 }
  - { offsetInCU: 0x11BD8, offset: 0x11BD8, size: 0x8, addend: 0x0, symName: __ZNSt3__19use_facetB7v160006INS_5ctypeIcEEEERKT_RKNS_6localeE, symObjAddr: 0xBD10, symBinAddr: 0x10000D7A4, symSize: 0x2C }
  - { offsetInCU: 0x11BE0, offset: 0x11BE0, size: 0x8, addend: 0x0, symName: __ZNKSt3__15ctypeIcE5widenB7v160006Ec, symObjAddr: 0xBD3C, symBinAddr: 0x10000D7D0, symSize: 0x38 }
  - { offsetInCU: 0x12115, offset: 0x12115, size: 0x8, addend: 0x0, symName: __ZNSt3__116__pad_and_outputB7v160006IcNS_11char_traitsIcEEEENS_19ostreambuf_iteratorIT_T0_EES6_PKS4_S8_S8_RNS_8ios_baseES4_, symObjAddr: 0xBFB0, symBinAddr: 0x10000DA44, symSize: 0x240 }
  - { offsetInCU: 0x1211D, offset: 0x1211D, size: 0x8, addend: 0x0, symName: __ZNSt3__119ostreambuf_iteratorIcNS_11char_traitsIcEEEC1B7v160006ERNS_13basic_ostreamIcS2_EE, symObjAddr: 0xC1F0, symBinAddr: 0x10000DC84, symSize: 0x34 }
  - { offsetInCU: 0x121E9, offset: 0x121E9, size: 0x8, addend: 0x0, symName: __ZNSt3__118__constexpr_strlenB7v160006EPKc, symObjAddr: 0xC6B8, symBinAddr: 0x10000E14C, symSize: 0x24 }
  - { offsetInCU: 0x121F1, offset: 0x121F1, size: 0x8, addend: 0x0, symName: __ZNSt3__15dequeIcNS_9allocatorIcEEE9push_backERKc, symObjAddr: 0xC6DC, symBinAddr: 0x10000E170, symSize: 0xA0 }
  - { offsetInCU: 0x13152, offset: 0x13152, size: 0x8, addend: 0x0, symName: __ZSt28__throw_bad_array_new_lengthB7v160006v, symObjAddr: 0x3290, symBinAddr: 0x100004D24, symSize: 0x34 }
  - { offsetInCU: 0x1315A, offset: 0x1315A, size: 0x8, addend: 0x0, symName: __ZNSt3__117__libcpp_allocateB7v160006Emm, symObjAddr: 0x32C4, symBinAddr: 0x100004D58, symSize: 0x60 }
  - { offsetInCU: 0x1378A, offset: 0x1378A, size: 0x8, addend: 0x0, symName: __ZNSt3__16vectorINS_12basic_stringIcNS_11char_traitsIcEENS_9allocatorIcEEEENS4_IS6_EEE26__swap_out_circular_bufferERNS_14__split_bufferIS6_RS7_EE, symObjAddr: 0x2ACC, symBinAddr: 0x100004560, symSize: 0x118 }
  - { offsetInCU: 0x13792, offset: 0x13792, size: 0x8, addend: 0x0, symName: __ZNSt3__114__split_bufferINS_12basic_stringIcNS_11char_traitsIcEENS_9allocatorIcEEEERNS4_IS6_EEED1Ev, symObjAddr: 0x2BE4, symBinAddr: 0x100004678, symSize: 0x2C }
  - { offsetInCU: 0x13AFB, offset: 0x13AFB, size: 0x8, addend: 0x0, symName: __ZNSt3__16vectorINS_5stackIcNS_5dequeIcNS_9allocatorIcEEEEEENS3_IS6_EEE26__swap_out_circular_bufferERNS_14__split_bufferIS6_RS7_EE, symObjAddr: 0x4A74, symBinAddr: 0x100006508, symSize: 0x118 }
  - { offsetInCU: 0x13B03, offset: 0x13B03, size: 0x8, addend: 0x0, symName: __ZNSt3__114__split_bufferINS_5stackIcNS_5dequeIcNS_9allocatorIcEEEEEERNS3_IS6_EEED1Ev, symObjAddr: 0x4B8C, symBinAddr: 0x100006620, symSize: 0x2C }
  - { offsetInCU: 0x166BB, offset: 0x166BB, size: 0x8, addend: 0x0, symName: __Z12findSolutioniiiiRNSt3__16vectorINS_5stackIcNS_5dequeIcNS_9allocatorIcEEEEEENS3_IS6_EEEERNS0_INS_12basic_stringIcNS_11char_traitsIcEES4_EENS3_ISD_EEEE, symObjAddr: 0x0, symBinAddr: 0x100001A94, symSize: 0x8D0 }
  - { offsetInCU: 0x166C3, offset: 0x166C3, size: 0x8, addend: 0x0, symName: __ZNSt3__16vectorINS_5stackIcNS_5dequeIcNS_9allocatorIcEEEEEENS3_IS6_EEEixB7v160006Em, symObjAddr: 0x8D0, symBinAddr: 0x100002364, symSize: 0x2C }
  - { offsetInCU: 0x1684C, offset: 0x1684C, size: 0x8, addend: 0x0, symName: __ZNSt3__16vectorINS_5stackIcNS_5dequeIcNS_9allocatorIcEEEEEENS3_IS6_EEEixB7v160006Em, symObjAddr: 0x8D0, symBinAddr: 0x100002364, symSize: 0x2C }
  - { offsetInCU: 0x16854, offset: 0x16854, size: 0x8, addend: 0x0, symName: __ZNSt3__15stackIcNS_5dequeIcNS_9allocatorIcEEEEEC1B7v160006ERKS5_, symObjAddr: 0x8FC, symBinAddr: 0x100002390, symSize: 0x34 }
  - { offsetInCU: 0x16889, offset: 0x16889, size: 0x8, addend: 0x0, symName: __ZNSt3__15stackIcNS_5dequeIcNS_9allocatorIcEEEEEC1B7v160006ERKS5_, symObjAddr: 0x8FC, symBinAddr: 0x100002390, symSize: 0x34 }
  - { offsetInCU: 0x16891, offset: 0x16891, size: 0x8, addend: 0x0, symName: __ZNSt3__13mapIciNS_4lessIcEENS_9allocatorINS_4pairIKciEEEEEC1B7v160006Ev, symObjAddr: 0x930, symBinAddr: 0x1000023C4, symSize: 0x2C }
  - { offsetInCU: 0x168C6, offset: 0x168C6, size: 0x8, addend: 0x0, symName: __ZNSt3__13mapIciNS_4lessIcEENS_9allocatorINS_4pairIKciEEEEEC1B7v160006Ev, symObjAddr: 0x930, symBinAddr: 0x1000023C4, symSize: 0x2C }
  - { offsetInCU: 0x168CE, offset: 0x168CE, size: 0x8, addend: 0x0, symName: __ZNKSt3__15stackIcNS_5dequeIcNS_9allocatorIcEEEEE5emptyB7v160006Ev, symObjAddr: 0x95C, symBinAddr: 0x1000023F0, symSize: 0x28 }
  - { offsetInCU: 0x168F5, offset: 0x168F5, size: 0x8, addend: 0x0, symName: __ZNKSt3__15stackIcNS_5dequeIcNS_9allocatorIcEEEEE5emptyB7v160006Ev, symObjAddr: 0x95C, symBinAddr: 0x1000023F0, symSize: 0x28 }
  - { offsetInCU: 0x168FD, offset: 0x168FD, size: 0x8, addend: 0x0, symName: __ZNSt3__15stackIcNS_5dequeIcNS_9allocatorIcEEEEE3topB7v160006Ev, symObjAddr: 0x984, symBinAddr: 0x100002418, symSize: 0x24 }
  - { offsetInCU: 0x16920, offset: 0x16920, size: 0x8, addend: 0x0, symName: __ZNSt3__15stackIcNS_5dequeIcNS_9allocatorIcEEEEE3topB7v160006Ev, symObjAddr: 0x984, symBinAddr: 0x100002418, symSize: 0x24 }
  - { offsetInCU: 0x16928, offset: 0x16928, size: 0x8, addend: 0x0, symName: __ZNSt3__13mapIciNS_4lessIcEENS_9allocatorINS_4pairIKciEEEEEixERS5_, symObjAddr: 0x9A8, symBinAddr: 0x10000243C, symSize: 0x80 }
  - { offsetInCU: 0x1694B, offset: 0x1694B, size: 0x8, addend: 0x0, symName: __ZNSt3__13mapIciNS_4lessIcEENS_9allocatorINS_4pairIKciEEEEEixERS5_, symObjAddr: 0x9A8, symBinAddr: 0x10000243C, symSize: 0x80 }
  - { offsetInCU: 0x16953, offset: 0x16953, size: 0x8, addend: 0x0, symName: __ZNSt3__15stackIcNS_5dequeIcNS_9allocatorIcEEEEE3popB7v160006Ev, symObjAddr: 0xA28, symBinAddr: 0x1000024BC, symSize: 0x24 }
  - { offsetInCU: 0x16987, offset: 0x16987, size: 0x8, addend: 0x0, symName: __ZNSt3__15stackIcNS_5dequeIcNS_9allocatorIcEEEEE3popB7v160006Ev, symObjAddr: 0xA28, symBinAddr: 0x1000024BC, symSize: 0x24 }
  - { offsetInCU: 0x1698F, offset: 0x1698F, size: 0x8, addend: 0x0, symName: __ZNKSt3__13mapIciNS_4lessIcEENS_9allocatorINS_4pairIKciEEEEE4sizeB7v160006Ev, symObjAddr: 0xA4C, symBinAddr: 0x1000024E0, symSize: 0x28 }
  - { offsetInCU: 0x169B2, offset: 0x169B2, size: 0x8, addend: 0x0, symName: __ZNKSt3__13mapIciNS_4lessIcEENS_9allocatorINS_4pairIKciEEEEE4sizeB7v160006Ev, symObjAddr: 0xA4C, symBinAddr: 0x1000024E0, symSize: 0x28 }
  - { offsetInCU: 0x169BA, offset: 0x169BA, size: 0x8, addend: 0x0, symName: __ZNSt3__13mapIciNS_4lessIcEENS_9allocatorINS_4pairIKciEEEEED1B7v160006Ev, symObjAddr: 0xA74, symBinAddr: 0x100002508, symSize: 0x2C }
  - { offsetInCU: 0x169DD, offset: 0x169DD, size: 0x8, addend: 0x0, symName: __ZNSt3__13mapIciNS_4lessIcEENS_9allocatorINS_4pairIKciEEEEED1B7v160006Ev, symObjAddr: 0xA74, symBinAddr: 0x100002508, symSize: 0x2C }
  - { offsetInCU: 0x169E5, offset: 0x169E5, size: 0x8, addend: 0x0, symName: __ZNSt3__15stackIcNS_5dequeIcNS_9allocatorIcEEEEED1Ev, symObjAddr: 0xAA0, symBinAddr: 0x100002534, symSize: 0x2C }
  - { offsetInCU: 0x16A0C, offset: 0x16A0C, size: 0x8, addend: 0x0, symName: __ZNSt3__15stackIcNS_5dequeIcNS_9allocatorIcEEEEED1Ev, symObjAddr: 0xAA0, symBinAddr: 0x100002534, symSize: 0x2C }
  - { offsetInCU: 0x16A14, offset: 0x16A14, size: 0x8, addend: 0x0, symName: __ZNSt3__1lsB7v160006INS_11char_traitsIcEEEERNS_13basic_ostreamIcT_EES6_PKc, symObjAddr: 0xACC, symBinAddr: 0x100002560, symSize: 0x48 }
  - { offsetInCU: 0x16A3D, offset: 0x16A3D, size: 0x8, addend: 0x0, symName: __ZNSt3__113basic_ostreamIcNS_11char_traitsIcEEElsB7v160006EPFRS3_S4_E, symObjAddr: 0xB14, symBinAddr: 0x1000025A8, symSize: 0x2C }
  - { offsetInCU: 0x16A45, offset: 0x16A45, size: 0x8, addend: 0x0, symName: __ZNSt3__14endlB7v160006IcNS_11char_traitsIcEEEERNS_13basic_ostreamIT_T0_EES7_, symObjAddr: 0xB40, symBinAddr: 0x1000025D4, symSize: 0x58 }
  - { offsetInCU: 0x16A76, offset: 0x16A76, size: 0x8, addend: 0x0, symName: __ZNKSt3__16vectorINS_12basic_stringIcNS_11char_traitsIcEENS_9allocatorIcEEEENS4_IS6_EEE4sizeB7v160006Ev, symObjAddr: 0xB98, symBinAddr: 0x10000262C, symSize: 0x28 }
  - { offsetInCU: 0x16A7E, offset: 0x16A7E, size: 0x8, addend: 0x0, symName: __ZNSt3__1lsB7v160006IcNS_11char_traitsIcEENS_9allocatorIcEEEERNS_13basic_ostreamIT_T0_EES9_RKNS_12basic_stringIS6_S7_T1_EE, symObjAddr: 0xBC0, symBinAddr: 0x100002654, symSize: 0x4C }
  - { offsetInCU: 0x16AA2, offset: 0x16AA2, size: 0x8, addend: 0x0, symName: __ZNSt3__16vectorINS_12basic_stringIcNS_11char_traitsIcEENS_9allocatorIcEEEENS4_IS6_EEEixB7v160006Em, symObjAddr: 0xC0C, symBinAddr: 0x1000026A0, symSize: 0x2C }
  - { offsetInCU: 0x16AAA, offset: 0x16AAA, size: 0x8, addend: 0x0, symName: __ZNSt3__1eqB7v160006INS_9allocatorIcEEEEbRKNS_12basic_stringIcNS_11char_traitsIcEET_EES9_, symObjAddr: 0xC38, symBinAddr: 0x1000026CC, symSize: 0x148 }
  - { offsetInCU: 0x16ADF, offset: 0x16ADF, size: 0x8, addend: 0x0, symName: __ZNSt3__15stackIcNS_5dequeIcNS_9allocatorIcEEEEE4pushB7v160006ERKc, symObjAddr: 0xD80, symBinAddr: 0x100002814, symSize: 0x2C }
  - { offsetInCU: 0x16AE7, offset: 0x16AE7, size: 0x8, addend: 0x0, symName: __ZNSt3__16vectorINS_12basic_stringIcNS_11char_traitsIcEENS_9allocatorIcEEEENS4_IS6_EEE9push_backB7v160006EOS6_, symObjAddr: 0xDAC, symBinAddr: 0x100002840, symSize: 0x6C }
  - { offsetInCU: 0x16B18, offset: 0x16B18, size: 0x8, addend: 0x0, symName: __ZNSt3__16vectorINS_12basic_stringIcNS_11char_traitsIcEENS_9allocatorIcEEEENS4_IS6_EEE9push_backB7v160006EOS6_, symObjAddr: 0xDAC, symBinAddr: 0x100002840, symSize: 0x6C }
  - { offsetInCU: 0x16B20, offset: 0x16B20, size: 0x8, addend: 0x0, symName: __ZNSt3__1plB7v160006IcNS_11char_traitsIcEENS_9allocatorIcEEEENS_12basic_stringIT_T0_T1_EEOS9_PKS6_, symObjAddr: 0xE18, symBinAddr: 0x1000028AC, symSize: 0x40 }
  - { offsetInCU: 0x16B54, offset: 0x16B54, size: 0x8, addend: 0x0, symName: __ZNSt3__16vectorINS_12basic_stringIcNS_11char_traitsIcEENS_9allocatorIcEEEENS4_IS6_EEE8pop_backEv, symObjAddr: 0xEDC, symBinAddr: 0x100002970, symSize: 0x2C }
  - { offsetInCU: 0x16B5C, offset: 0x16B5C, size: 0x8, addend: 0x0, symName: __ZNKSt3__15stackIcNS_5dequeIcNS_9allocatorIcEEEEE4sizeB7v160006Ev, symObjAddr: 0xF08, symBinAddr: 0x10000299C, symSize: 0x24 }
  - { offsetInCU: 0x16B81, offset: 0x16B81, size: 0x8, addend: 0x0, symName: __ZNKSt3__15stackIcNS_5dequeIcNS_9allocatorIcEEEEE4sizeB7v160006Ev, symObjAddr: 0xF08, symBinAddr: 0x10000299C, symSize: 0x24 }
  - { offsetInCU: 0x16B89, offset: 0x16B89, size: 0x8, addend: 0x0, symName: _main, symObjAddr: 0xF2C, symBinAddr: 0x1000029C0, symSize: 0x348 }
  - { offsetInCU: 0x16BAC, offset: 0x16BAC, size: 0x8, addend: 0x0, symName: _main, symObjAddr: 0xF2C, symBinAddr: 0x1000029C0, symSize: 0x348 }
  - { offsetInCU: 0x16BB4, offset: 0x16BB4, size: 0x8, addend: 0x0, symName: __ZNSt3__16vectorINS_5stackIcNS_5dequeIcNS_9allocatorIcEEEEEENS3_IS6_EEEC1B7v160006Ev, symObjAddr: 0x1274, symBinAddr: 0x100002D08, symSize: 0x2C }
  - { offsetInCU: 0x16C75, offset: 0x16C75, size: 0x8, addend: 0x0, symName: __ZNSt3__16vectorINS_5stackIcNS_5dequeIcNS_9allocatorIcEEEEEENS3_IS6_EEEC1B7v160006Ev, symObjAddr: 0x1274, symBinAddr: 0x100002D08, symSize: 0x2C }
  - { offsetInCU: 0x16C7D, offset: 0x16C7D, size: 0x8, addend: 0x0, symName: __ZNSt3__15stackIcNS_5dequeIcNS_9allocatorIcEEEEEC1B7v160006Ev, symObjAddr: 0x12A0, symBinAddr: 0x100002D34, symSize: 0x2C }
  - { offsetInCU: 0x16CA4, offset: 0x16CA4, size: 0x8, addend: 0x0, symName: __ZNSt3__15stackIcNS_5dequeIcNS_9allocatorIcEEEEEC1B7v160006Ev, symObjAddr: 0x12A0, symBinAddr: 0x100002D34, symSize: 0x2C }
  - { offsetInCU: 0x16CAC, offset: 0x16CAC, size: 0x8, addend: 0x0, symName: __ZNSt3__1rsB7v160006IcNS_11char_traitsIcEEEERNS_13basic_istreamIT_T0_EES7_RS4_, symObjAddr: 0x12CC, symBinAddr: 0x100002D60, symSize: 0x190 }
  - { offsetInCU: 0x16CD3, offset: 0x16CD3, size: 0x8, addend: 0x0, symName: __ZNSt3__16vectorINS_5stackIcNS_5dequeIcNS_9allocatorIcEEEEEENS3_IS6_EEE9push_backB7v160006ERKS6_, symObjAddr: 0x145C, symBinAddr: 0x100002EF0, symSize: 0x6C }
  - { offsetInCU: 0x16CDB, offset: 0x16CDB, size: 0x8, addend: 0x0, symName: __ZNSt3__16vectorINS_12basic_stringIcNS_11char_traitsIcEENS_9allocatorIcEEEENS4_IS6_EEEC1B7v160006Ev, symObjAddr: 0x14C8, symBinAddr: 0x100002F5C, symSize: 0x2C }
  - { offsetInCU: 0x16D0F, offset: 0x16D0F, size: 0x8, addend: 0x0, symName: __ZNSt3__16vectorINS_12basic_stringIcNS_11char_traitsIcEENS_9allocatorIcEEEENS4_IS6_EEEC1B7v160006Ev, symObjAddr: 0x14C8, symBinAddr: 0x100002F5C, symSize: 0x2C }
  - { offsetInCU: 0x16D17, offset: 0x16D17, size: 0x8, addend: 0x0, symName: __ZNSt3__16vectorINS_12basic_stringIcNS_11char_traitsIcEENS_9allocatorIcEEEENS4_IS6_EEED1B7v160006Ev, symObjAddr: 0x14F4, symBinAddr: 0x100002F88, symSize: 0x2C }
  - { offsetInCU: 0x16D3E, offset: 0x16D3E, size: 0x8, addend: 0x0, symName: __ZNSt3__16vectorINS_12basic_stringIcNS_11char_traitsIcEENS_9allocatorIcEEEENS4_IS6_EEED1B7v160006Ev, symObjAddr: 0x14F4, symBinAddr: 0x100002F88, symSize: 0x2C }
  - { offsetInCU: 0x16D46, offset: 0x16D46, size: 0x8, addend: 0x0, symName: __ZNSt3__16vectorINS_5stackIcNS_5dequeIcNS_9allocatorIcEEEEEENS3_IS6_EEED1B7v160006Ev, symObjAddr: 0x1520, symBinAddr: 0x100002FB4, symSize: 0x2C }
  - { offsetInCU: 0x16D6D, offset: 0x16D6D, size: 0x8, addend: 0x0, symName: __ZNSt3__16vectorINS_5stackIcNS_5dequeIcNS_9allocatorIcEEEEEENS3_IS6_EEED1B7v160006Ev, symObjAddr: 0x1520, symBinAddr: 0x100002FB4, symSize: 0x2C }
  - { offsetInCU: 0x16D75, offset: 0x16D75, size: 0x8, addend: 0x0, symName: __ZNSt3__15stackIcNS_5dequeIcNS_9allocatorIcEEEEED2Ev, symObjAddr: 0x154C, symBinAddr: 0x100002FE0, symSize: 0x2C }
  - { offsetInCU: 0x16D9C, offset: 0x16D9C, size: 0x8, addend: 0x0, symName: __ZNSt3__15stackIcNS_5dequeIcNS_9allocatorIcEEEEED2Ev, symObjAddr: 0x154C, symBinAddr: 0x100002FE0, symSize: 0x2C }
  - { offsetInCU: 0x16DA4, offset: 0x16DA4, size: 0x8, addend: 0x0, symName: __ZNSt3__15dequeIcNS_9allocatorIcEEED1B7v160006Ev, symObjAddr: 0x1578, symBinAddr: 0x10000300C, symSize: 0x2C }
  - { offsetInCU: 0x16DCD, offset: 0x16DCD, size: 0x8, addend: 0x0, symName: __ZNSt3__15dequeIcNS_9allocatorIcEEED1B7v160006Ev, symObjAddr: 0x1578, symBinAddr: 0x10000300C, symSize: 0x2C }
  - { offsetInCU: 0x16DD5, offset: 0x16DD5, size: 0x8, addend: 0x0, symName: __ZNSt3__15dequeIcNS_9allocatorIcEEED2B7v160006Ev, symObjAddr: 0x15A4, symBinAddr: 0x100003038, symSize: 0x9C }
  - { offsetInCU: 0x16DFC, offset: 0x16DFC, size: 0x8, addend: 0x0, symName: __ZNSt3__15dequeIcNS_9allocatorIcEEED2B7v160006Ev, symObjAddr: 0x15A4, symBinAddr: 0x100003038, symSize: 0x9C }
  - { offsetInCU: 0x16E04, offset: 0x16E04, size: 0x8, addend: 0x0, symName: __ZNSt3__15dequeIcNS_9allocatorIcEEE5clearEv, symObjAddr: 0x1640, symBinAddr: 0x1000030D4, symSize: 0x180 }
  - { offsetInCU: 0x16E5B, offset: 0x16E5B, size: 0x8, addend: 0x0, symName: __ZNSt3__15dequeIcNS_9allocatorIcEEE5clearEv, symObjAddr: 0x1640, symBinAddr: 0x1000030D4, symSize: 0x180 }
  - { offsetInCU: 0x16E63, offset: 0x16E63, size: 0x8, addend: 0x0, symName: __ZNSt3__114__split_bufferIPcNS_9allocatorIS1_EEE5beginB7v160006Ev, symObjAddr: 0x17C0, symBinAddr: 0x100003254, symSize: 0x18 }
  - { offsetInCU: 0x16EBB, offset: 0x16EBB, size: 0x8, addend: 0x0, symName: __ZNSt3__114__split_bufferIPcNS_9allocatorIS1_EEE5beginB7v160006Ev, symObjAddr: 0x17C0, symBinAddr: 0x100003254, symSize: 0x18 }
  - { offsetInCU: 0x16EC3, offset: 0x16EC3, size: 0x8, addend: 0x0, symName: __ZNSt3__114__split_bufferIPcNS_9allocatorIS1_EEE3endB7v160006Ev, symObjAddr: 0x17D8, symBinAddr: 0x10000326C, symSize: 0x18 }
  - { offsetInCU: 0x16EE7, offset: 0x16EE7, size: 0x8, addend: 0x0, symName: __ZNSt3__114__split_bufferIPcNS_9allocatorIS1_EEE3endB7v160006Ev, symObjAddr: 0x17D8, symBinAddr: 0x10000326C, symSize: 0x18 }
  - { offsetInCU: 0x16EEF, offset: 0x16EEF, size: 0x8, addend: 0x0, symName: __ZNSt3__116allocator_traitsINS_9allocatorIcEEE10deallocateB7v160006ERS2_Pcm, symObjAddr: 0x17F0, symBinAddr: 0x100003284, symSize: 0x34 }
  - { offsetInCU: 0x16F13, offset: 0x16F13, size: 0x8, addend: 0x0, symName: __ZNSt3__116allocator_traitsINS_9allocatorIcEEE10deallocateB7v160006ERS2_Pcm, symObjAddr: 0x17F0, symBinAddr: 0x100003284, symSize: 0x34 }
  - { offsetInCU: 0x16F1B, offset: 0x16F1B, size: 0x8, addend: 0x0, symName: __ZNSt3__15dequeIcNS_9allocatorIcEEE7__allocB7v160006Ev, symObjAddr: 0x1824, symBinAddr: 0x1000032B8, symSize: 0x28 }
  - { offsetInCU: 0x16F59, offset: 0x16F59, size: 0x8, addend: 0x0, symName: __ZNSt3__15dequeIcNS_9allocatorIcEEE7__allocB7v160006Ev, symObjAddr: 0x1824, symBinAddr: 0x1000032B8, symSize: 0x28 }
  - { offsetInCU: 0x16F61, offset: 0x16F61, size: 0x8, addend: 0x0, symName: __ZNSt3__114__split_bufferIPcNS_9allocatorIS1_EEED1Ev, symObjAddr: 0x184C, symBinAddr: 0x1000032E0, symSize: 0x2C }
  - { offsetInCU: 0x16F84, offset: 0x16F84, size: 0x8, addend: 0x0, symName: __ZNSt3__114__split_bufferIPcNS_9allocatorIS1_EEED1Ev, symObjAddr: 0x184C, symBinAddr: 0x1000032E0, symSize: 0x2C }
  - { offsetInCU: 0x16F8C, offset: 0x16F8C, size: 0x8, addend: 0x0, symName: __ZNSt3__15dequeIcNS_9allocatorIcEEE5beginB7v160006Ev, symObjAddr: 0x1878, symBinAddr: 0x10000330C, symSize: 0xB8 }
  - { offsetInCU: 0x16FB5, offset: 0x16FB5, size: 0x8, addend: 0x0, symName: __ZNSt3__15dequeIcNS_9allocatorIcEEE5beginB7v160006Ev, symObjAddr: 0x1878, symBinAddr: 0x10000330C, symSize: 0xB8 }
  - { offsetInCU: 0x16FBD, offset: 0x16FBD, size: 0x8, addend: 0x0, symName: __ZNSt3__15dequeIcNS_9allocatorIcEEE3endB7v160006Ev, symObjAddr: 0x1930, symBinAddr: 0x1000033C4, symSize: 0xBC }
  - { offsetInCU: 0x16FEF, offset: 0x16FEF, size: 0x8, addend: 0x0, symName: __ZNSt3__15dequeIcNS_9allocatorIcEEE3endB7v160006Ev, symObjAddr: 0x1930, symBinAddr: 0x1000033C4, symSize: 0xBC }
  - { offsetInCU: 0x16FF7, offset: 0x16FF7, size: 0x8, addend: 0x0, symName: __ZNSt3__1neB7v160006ERKNS_16__deque_iteratorIcPcRcPS1_lLl4096EEES6_, symObjAddr: 0x19EC, symBinAddr: 0x100003480, symSize: 0x34 }
  - { offsetInCU: 0x17038, offset: 0x17038, size: 0x8, addend: 0x0, symName: __ZNSt3__116allocator_traitsINS_9allocatorIcEEE7destroyB7v160006IcvvEEvRS2_PT_, symObjAddr: 0x1A2C, symBinAddr: 0x1000034C0, symSize: 0x28 }
  - { offsetInCU: 0x17040, offset: 0x17040, size: 0x8, addend: 0x0, symName: __ZNKSt3__116__deque_iteratorIcPcRcPS1_lLl4096EEdeB7v160006Ev, symObjAddr: 0x1A54, symBinAddr: 0x1000034E8, symSize: 0x18 }
  - { offsetInCU: 0x17077, offset: 0x17077, size: 0x8, addend: 0x0, symName: __ZNKSt3__116__deque_iteratorIcPcRcPS1_lLl4096EEdeB7v160006Ev, symObjAddr: 0x1A54, symBinAddr: 0x1000034E8, symSize: 0x18 }
  - { offsetInCU: 0x1707F, offset: 0x1707F, size: 0x8, addend: 0x0, symName: __ZNSt3__116__deque_iteratorIcPcRcPS1_lLl4096EEppB7v160006Ev, symObjAddr: 0x1A6C, symBinAddr: 0x100003500, symSize: 0x68 }
  - { offsetInCU: 0x170A3, offset: 0x170A3, size: 0x8, addend: 0x0, symName: __ZNSt3__116__deque_iteratorIcPcRcPS1_lLl4096EEppB7v160006Ev, symObjAddr: 0x1A6C, symBinAddr: 0x100003500, symSize: 0x68 }
  - { offsetInCU: 0x170AB, offset: 0x170AB, size: 0x8, addend: 0x0, symName: __ZNSt3__15dequeIcNS_9allocatorIcEEE6__sizeB7v160006Ev, symObjAddr: 0x1AD4, symBinAddr: 0x100003568, symSize: 0x28 }
  - { offsetInCU: 0x170CF, offset: 0x170CF, size: 0x8, addend: 0x0, symName: __ZNSt3__15dequeIcNS_9allocatorIcEEE6__sizeB7v160006Ev, symObjAddr: 0x1AD4, symBinAddr: 0x100003568, symSize: 0x28 }
  - { offsetInCU: 0x170D7, offset: 0x170D7, size: 0x8, addend: 0x0, symName: __ZNKSt3__114__split_bufferIPcNS_9allocatorIS1_EEE4sizeB7v160006Ev, symObjAddr: 0x1AFC, symBinAddr: 0x100003590, symSize: 0x28 }
  - { offsetInCU: 0x170FA, offset: 0x170FA, size: 0x8, addend: 0x0, symName: __ZNKSt3__114__split_bufferIPcNS_9allocatorIS1_EEE4sizeB7v160006Ev, symObjAddr: 0x1AFC, symBinAddr: 0x100003590, symSize: 0x28 }
  - { offsetInCU: 0x17102, offset: 0x17102, size: 0x8, addend: 0x0, symName: __ZNSt3__114__split_bufferIPcNS_9allocatorIS1_EEE5frontB7v160006Ev, symObjAddr: 0x1B24, symBinAddr: 0x1000035B8, symSize: 0x18 }
  - { offsetInCU: 0x17126, offset: 0x17126, size: 0x8, addend: 0x0, symName: __ZNSt3__114__split_bufferIPcNS_9allocatorIS1_EEE5frontB7v160006Ev, symObjAddr: 0x1B24, symBinAddr: 0x1000035B8, symSize: 0x18 }
  - { offsetInCU: 0x1712E, offset: 0x1712E, size: 0x8, addend: 0x0, symName: __ZNSt3__114__split_bufferIPcNS_9allocatorIS1_EEE9pop_frontB7v160006Ev, symObjAddr: 0x1B3C, symBinAddr: 0x1000035D0, symSize: 0x2C }
  - { offsetInCU: 0x17152, offset: 0x17152, size: 0x8, addend: 0x0, symName: __ZNSt3__114__split_bufferIPcNS_9allocatorIS1_EEE9pop_frontB7v160006Ev, symObjAddr: 0x1B3C, symBinAddr: 0x1000035D0, symSize: 0x2C }
  - { offsetInCU: 0x1715A, offset: 0x1715A, size: 0x8, addend: 0x0, symName: __ZNKSt3__114__split_bufferIPcNS_9allocatorIS1_EEE5emptyB7v160006Ev, symObjAddr: 0x1B68, symBinAddr: 0x1000035FC, symSize: 0x28 }
  - { offsetInCU: 0x1717D, offset: 0x1717D, size: 0x8, addend: 0x0, symName: __ZNKSt3__114__split_bufferIPcNS_9allocatorIS1_EEE5emptyB7v160006Ev, symObjAddr: 0x1B68, symBinAddr: 0x1000035FC, symSize: 0x28 }
  - { offsetInCU: 0x17185, offset: 0x17185, size: 0x8, addend: 0x0, symName: __ZNSt3__116__deque_iteratorIcPcRcPS1_lLl4096EEC1B7v160006ES3_S1_, symObjAddr: 0x1B90, symBinAddr: 0x100003624, symSize: 0x3C }
  - { offsetInCU: 0x171A9, offset: 0x171A9, size: 0x8, addend: 0x0, symName: __ZNSt3__116__deque_iteratorIcPcRcPS1_lLl4096EEC1B7v160006ES3_S1_, symObjAddr: 0x1B90, symBinAddr: 0x100003624, symSize: 0x3C }
  - { offsetInCU: 0x171B1, offset: 0x171B1, size: 0x8, addend: 0x0, symName: __ZNSt3__116__deque_iteratorIcPcRcPS1_lLl4096EEC2B7v160006ES3_S1_, symObjAddr: 0x1BCC, symBinAddr: 0x100003660, symSize: 0x2C }
  - { offsetInCU: 0x171F6, offset: 0x171F6, size: 0x8, addend: 0x0, symName: __ZNSt3__116__deque_iteratorIcPcRcPS1_lLl4096EEC2B7v160006ES3_S1_, symObjAddr: 0x1BCC, symBinAddr: 0x100003660, symSize: 0x2C }
  - { offsetInCU: 0x171FE, offset: 0x171FE, size: 0x8, addend: 0x0, symName: __ZNKSt3__15dequeIcNS_9allocatorIcEEE4sizeB7v160006Ev, symObjAddr: 0x1BF8, symBinAddr: 0x10000368C, symSize: 0x28 }
  - { offsetInCU: 0x17244, offset: 0x17244, size: 0x8, addend: 0x0, symName: __ZNKSt3__15dequeIcNS_9allocatorIcEEE4sizeB7v160006Ev, symObjAddr: 0x1BF8, symBinAddr: 0x10000368C, symSize: 0x28 }
  - { offsetInCU: 0x1724C, offset: 0x1724C, size: 0x8, addend: 0x0, symName: __ZNKSt3__15dequeIcNS_9allocatorIcEEE6__sizeB7v160006Ev, symObjAddr: 0x1C20, symBinAddr: 0x1000036B4, symSize: 0x28 }
  - { offsetInCU: 0x1726F, offset: 0x1726F, size: 0x8, addend: 0x0, symName: __ZNKSt3__15dequeIcNS_9allocatorIcEEE6__sizeB7v160006Ev, symObjAddr: 0x1C20, symBinAddr: 0x1000036B4, symSize: 0x28 }
  - { offsetInCU: 0x17277, offset: 0x17277, size: 0x8, addend: 0x0, symName: __ZNKSt3__117__compressed_pairImNS_9allocatorIcEEE5firstB7v160006Ev, symObjAddr: 0x1C48, symBinAddr: 0x1000036DC, symSize: 0x24 }
  - { offsetInCU: 0x1729A, offset: 0x1729A, size: 0x8, addend: 0x0, symName: __ZNKSt3__117__compressed_pairImNS_9allocatorIcEEE5firstB7v160006Ev, symObjAddr: 0x1C48, symBinAddr: 0x1000036DC, symSize: 0x24 }
  - { offsetInCU: 0x172A2, offset: 0x172A2, size: 0x8, addend: 0x0, symName: __ZNKSt3__122__compressed_pair_elemImLi0ELb0EE5__getB7v160006Ev, symObjAddr: 0x1C6C, symBinAddr: 0x100003700, symSize: 0x14 }
  - { offsetInCU: 0x172C5, offset: 0x172C5, size: 0x8, addend: 0x0, symName: __ZNKSt3__122__compressed_pair_elemImLi0ELb0EE5__getB7v160006Ev, symObjAddr: 0x1C6C, symBinAddr: 0x100003700, symSize: 0x14 }
  - { offsetInCU: 0x172CD, offset: 0x172CD, size: 0x8, addend: 0x0, symName: __ZNSt3__1eqB7v160006ERKNS_16__deque_iteratorIcPcRcPS1_lLl4096EEES6_, symObjAddr: 0x1C80, symBinAddr: 0x100003714, symSize: 0x30 }
  - { offsetInCU: 0x172F1, offset: 0x172F1, size: 0x8, addend: 0x0, symName: __ZNSt3__117__compressed_pairImNS_9allocatorIcEEE5firstB7v160006Ev, symObjAddr: 0x1CE4, symBinAddr: 0x100003778, symSize: 0x24 }
  - { offsetInCU: 0x172F9, offset: 0x172F9, size: 0x8, addend: 0x0, symName: __ZNSt3__122__compressed_pair_elemImLi0ELb0EE5__getB7v160006Ev, symObjAddr: 0x1D08, symBinAddr: 0x10000379C, symSize: 0x14 }
  - { offsetInCU: 0x1731C, offset: 0x1731C, size: 0x8, addend: 0x0, symName: __ZNSt3__122__compressed_pair_elemImLi0ELb0EE5__getB7v160006Ev, symObjAddr: 0x1D08, symBinAddr: 0x10000379C, symSize: 0x14 }
  - { offsetInCU: 0x17324, offset: 0x17324, size: 0x8, addend: 0x0, symName: __ZNSt3__114__split_bufferIPcNS_9allocatorIS1_EEE19__destruct_at_beginB7v160006EPS1_, symObjAddr: 0x1D1C, symBinAddr: 0x1000037B0, symSize: 0x2C }
  - { offsetInCU: 0x17348, offset: 0x17348, size: 0x8, addend: 0x0, symName: __ZNSt3__114__split_bufferIPcNS_9allocatorIS1_EEE19__destruct_at_beginB7v160006EPS1_, symObjAddr: 0x1D1C, symBinAddr: 0x1000037B0, symSize: 0x2C }
  - { offsetInCU: 0x17350, offset: 0x17350, size: 0x8, addend: 0x0, symName: __ZNSt3__114__split_bufferIPcNS_9allocatorIS1_EEE19__destruct_at_beginEPS1_NS_17integral_constantIbLb1EEE, symObjAddr: 0x1D48, symBinAddr: 0x1000037DC, symSize: 0x20 }
  - { offsetInCU: 0x17381, offset: 0x17381, size: 0x8, addend: 0x0, symName: __ZNSt3__114__split_bufferIPcNS_9allocatorIS1_EEE19__destruct_at_beginEPS1_NS_17integral_constantIbLb1EEE, symObjAddr: 0x1D48, symBinAddr: 0x1000037DC, symSize: 0x20 }
  - { offsetInCU: 0x17389, offset: 0x17389, size: 0x8, addend: 0x0, symName: __ZNSt3__19allocatorIcE10deallocateB7v160006EPcm, symObjAddr: 0x1D68, symBinAddr: 0x1000037FC, symSize: 0x40 }
  - { offsetInCU: 0x173C7, offset: 0x173C7, size: 0x8, addend: 0x0, symName: __ZNSt3__19allocatorIcE10deallocateB7v160006EPcm, symObjAddr: 0x1D68, symBinAddr: 0x1000037FC, symSize: 0x40 }
  - { offsetInCU: 0x173CF, offset: 0x173CF, size: 0x8, addend: 0x0, symName: __ZNSt3__119__libcpp_deallocateB7v160006EPvmm, symObjAddr: 0x1DA8, symBinAddr: 0x10000383C, symSize: 0x60 }
  - { offsetInCU: 0x1740E, offset: 0x1740E, size: 0x8, addend: 0x0, symName: __ZNSt3__117__compressed_pairImNS_9allocatorIcEEE6secondB7v160006Ev, symObjAddr: 0x1ED0, symBinAddr: 0x100003964, symSize: 0x24 }
  - { offsetInCU: 0x17416, offset: 0x17416, size: 0x8, addend: 0x0, symName: __ZNSt3__122__compressed_pair_elemINS_9allocatorIcEELi1ELb1EE5__getB7v160006Ev, symObjAddr: 0x1EF4, symBinAddr: 0x100003988, symSize: 0x14 }
  - { offsetInCU: 0x17439, offset: 0x17439, size: 0x8, addend: 0x0, symName: __ZNSt3__122__compressed_pair_elemINS_9allocatorIcEELi1ELb1EE5__getB7v160006Ev, symObjAddr: 0x1EF4, symBinAddr: 0x100003988, symSize: 0x14 }
  - { offsetInCU: 0x17441, offset: 0x17441, size: 0x8, addend: 0x0, symName: __ZNSt3__114__split_bufferIPcNS_9allocatorIS1_EEED2Ev, symObjAddr: 0x1F08, symBinAddr: 0x10000399C, symSize: 0x8C }
  - { offsetInCU: 0x17465, offset: 0x17465, size: 0x8, addend: 0x0, symName: __ZNSt3__114__split_bufferIPcNS_9allocatorIS1_EEED2Ev, symObjAddr: 0x1F08, symBinAddr: 0x10000399C, symSize: 0x8C }
  - { offsetInCU: 0x1746D, offset: 0x1746D, size: 0x8, addend: 0x0, symName: __ZNSt3__114__split_bufferIPcNS_9allocatorIS1_EEE5clearB7v160006Ev, symObjAddr: 0x1F94, symBinAddr: 0x100003A28, symSize: 0x28 }
  - { offsetInCU: 0x17496, offset: 0x17496, size: 0x8, addend: 0x0, symName: __ZNSt3__114__split_bufferIPcNS_9allocatorIS1_EEE5clearB7v160006Ev, symObjAddr: 0x1F94, symBinAddr: 0x100003A28, symSize: 0x28 }
  - { offsetInCU: 0x1749E, offset: 0x1749E, size: 0x8, addend: 0x0, symName: __ZNSt3__116allocator_traitsINS_9allocatorIPcEEE10deallocateB7v160006ERS3_PS2_m, symObjAddr: 0x1FBC, symBinAddr: 0x100003A50, symSize: 0x34 }
  - { offsetInCU: 0x174C1, offset: 0x174C1, size: 0x8, addend: 0x0, symName: __ZNSt3__116allocator_traitsINS_9allocatorIPcEEE10deallocateB7v160006ERS3_PS2_m, symObjAddr: 0x1FBC, symBinAddr: 0x100003A50, symSize: 0x34 }
  - { offsetInCU: 0x174C9, offset: 0x174C9, size: 0x8, addend: 0x0, symName: __ZNSt3__114__split_bufferIPcNS_9allocatorIS1_EEE7__allocB7v160006Ev, symObjAddr: 0x1FF0, symBinAddr: 0x100003A84, symSize: 0x28 }
  - { offsetInCU: 0x17507, offset: 0x17507, size: 0x8, addend: 0x0, symName: __ZNSt3__114__split_bufferIPcNS_9allocatorIS1_EEE7__allocB7v160006Ev, symObjAddr: 0x1FF0, symBinAddr: 0x100003A84, symSize: 0x28 }
  - { offsetInCU: 0x1750F, offset: 0x1750F, size: 0x8, addend: 0x0, symName: __ZNKSt3__114__split_bufferIPcNS_9allocatorIS1_EEE8capacityB7v160006Ev, symObjAddr: 0x2018, symBinAddr: 0x100003AAC, symSize: 0x40 }
  - { offsetInCU: 0x17532, offset: 0x17532, size: 0x8, addend: 0x0, symName: __ZNKSt3__114__split_bufferIPcNS_9allocatorIS1_EEE8capacityB7v160006Ev, symObjAddr: 0x2018, symBinAddr: 0x100003AAC, symSize: 0x40 }
  - { offsetInCU: 0x1753A, offset: 0x1753A, size: 0x8, addend: 0x0, symName: __ZNSt3__114__split_bufferIPcNS_9allocatorIS1_EEE17__destruct_at_endB7v160006EPS1_, symObjAddr: 0x2058, symBinAddr: 0x100003AEC, symSize: 0x2C }
  - { offsetInCU: 0x1755D, offset: 0x1755D, size: 0x8, addend: 0x0, symName: __ZNSt3__114__split_bufferIPcNS_9allocatorIS1_EEE17__destruct_at_endB7v160006EPS1_, symObjAddr: 0x2058, symBinAddr: 0x100003AEC, symSize: 0x2C }
  - { offsetInCU: 0x17565, offset: 0x17565, size: 0x8, addend: 0x0, symName: __ZNSt3__114__split_bufferIPcNS_9allocatorIS1_EEE17__destruct_at_endB7v160006EPS1_NS_17integral_constantIbLb0EEE, symObjAddr: 0x2084, symBinAddr: 0x100003B18, symSize: 0x80 }
  - { offsetInCU: 0x17596, offset: 0x17596, size: 0x8, addend: 0x0, symName: __ZNSt3__114__split_bufferIPcNS_9allocatorIS1_EEE17__destruct_at_endB7v160006EPS1_NS_17integral_constantIbLb0EEE, symObjAddr: 0x2084, symBinAddr: 0x100003B18, symSize: 0x80 }
  - { offsetInCU: 0x1759E, offset: 0x1759E, size: 0x8, addend: 0x0, symName: __ZNSt3__116allocator_traitsINS_9allocatorIPcEEE7destroyB7v160006IS2_vvEEvRS3_PT_, symObjAddr: 0x2104, symBinAddr: 0x100003B98, symSize: 0x28 }
  - { offsetInCU: 0x175DB, offset: 0x175DB, size: 0x8, addend: 0x0, symName: __ZNSt3__116allocator_traitsINS_9allocatorIPcEEE7destroyB7v160006IS2_vvEEvRS3_PT_, symObjAddr: 0x2104, symBinAddr: 0x100003B98, symSize: 0x28 }
  - { offsetInCU: 0x175E3, offset: 0x175E3, size: 0x8, addend: 0x0, symName: __ZNSt3__112__to_addressB7v160006IPcEEPT_S3_, symObjAddr: 0x212C, symBinAddr: 0x100003BC0, symSize: 0x14 }
  - { offsetInCU: 0x1761A, offset: 0x1761A, size: 0x8, addend: 0x0, symName: __ZNSt3__19allocatorIPcE10deallocateB7v160006EPS1_m, symObjAddr: 0x2174, symBinAddr: 0x100003C08, symSize: 0x40 }
  - { offsetInCU: 0x17622, offset: 0x17622, size: 0x8, addend: 0x0, symName: __ZNSt3__117__compressed_pairIPPcNS_9allocatorIS1_EEE6secondB7v160006Ev, symObjAddr: 0x21B4, symBinAddr: 0x100003C48, symSize: 0x24 }
  - { offsetInCU: 0x17661, offset: 0x17661, size: 0x8, addend: 0x0, symName: __ZNSt3__117__compressed_pairIPPcNS_9allocatorIS1_EEE6secondB7v160006Ev, symObjAddr: 0x21B4, symBinAddr: 0x100003C48, symSize: 0x24 }
  - { offsetInCU: 0x17669, offset: 0x17669, size: 0x8, addend: 0x0, symName: __ZNSt3__122__compressed_pair_elemINS_9allocatorIPcEELi1ELb1EE5__getB7v160006Ev, symObjAddr: 0x21D8, symBinAddr: 0x100003C6C, symSize: 0x14 }
  - { offsetInCU: 0x1768C, offset: 0x1768C, size: 0x8, addend: 0x0, symName: __ZNSt3__122__compressed_pair_elemINS_9allocatorIPcEELi1ELb1EE5__getB7v160006Ev, symObjAddr: 0x21D8, symBinAddr: 0x100003C6C, symSize: 0x14 }
  - { offsetInCU: 0x17694, offset: 0x17694, size: 0x8, addend: 0x0, symName: __ZNKSt3__114__split_bufferIPcNS_9allocatorIS1_EEE9__end_capB7v160006Ev, symObjAddr: 0x21EC, symBinAddr: 0x100003C80, symSize: 0x28 }
  - { offsetInCU: 0x176B8, offset: 0x176B8, size: 0x8, addend: 0x0, symName: __ZNKSt3__114__split_bufferIPcNS_9allocatorIS1_EEE9__end_capB7v160006Ev, symObjAddr: 0x21EC, symBinAddr: 0x100003C80, symSize: 0x28 }
  - { offsetInCU: 0x176C0, offset: 0x176C0, size: 0x8, addend: 0x0, symName: __ZNKSt3__117__compressed_pairIPPcNS_9allocatorIS1_EEE5firstB7v160006Ev, symObjAddr: 0x2214, symBinAddr: 0x100003CA8, symSize: 0x24 }
  - { offsetInCU: 0x176E3, offset: 0x176E3, size: 0x8, addend: 0x0, symName: __ZNKSt3__117__compressed_pairIPPcNS_9allocatorIS1_EEE5firstB7v160006Ev, symObjAddr: 0x2214, symBinAddr: 0x100003CA8, symSize: 0x24 }
  - { offsetInCU: 0x176EB, offset: 0x176EB, size: 0x8, addend: 0x0, symName: __ZNKSt3__122__compressed_pair_elemIPPcLi0ELb0EE5__getB7v160006Ev, symObjAddr: 0x2238, symBinAddr: 0x100003CCC, symSize: 0x14 }
  - { offsetInCU: 0x1770E, offset: 0x1770E, size: 0x8, addend: 0x0, symName: __ZNKSt3__122__compressed_pair_elemIPPcLi0ELb0EE5__getB7v160006Ev, symObjAddr: 0x2238, symBinAddr: 0x100003CCC, symSize: 0x14 }
  - { offsetInCU: 0x17716, offset: 0x17716, size: 0x8, addend: 0x0, symName: __ZNKSt3__112basic_stringIcNS_11char_traitsIcEENS_9allocatorIcEEE4sizeB7v160006Ev, symObjAddr: 0x224C, symBinAddr: 0x100003CE0, symSize: 0x54 }
  - { offsetInCU: 0x1773A, offset: 0x1773A, size: 0x8, addend: 0x0, symName: __ZNKSt3__112basic_stringIcNS_11char_traitsIcEENS_9allocatorIcEEE4sizeB7v160006Ev, symObjAddr: 0x224C, symBinAddr: 0x100003CE0, symSize: 0x54 }
  - { offsetInCU: 0x17742, offset: 0x17742, size: 0x8, addend: 0x0, symName: __ZNKSt3__112basic_stringIcNS_11char_traitsIcEENS_9allocatorIcEEE4dataB7v160006Ev, symObjAddr: 0x22A0, symBinAddr: 0x100003D34, symSize: 0x28 }
  - { offsetInCU: 0x17765, offset: 0x17765, size: 0x8, addend: 0x0, symName: __ZNKSt3__112basic_stringIcNS_11char_traitsIcEENS_9allocatorIcEEE4dataB7v160006Ev, symObjAddr: 0x22A0, symBinAddr: 0x100003D34, symSize: 0x28 }
  - { offsetInCU: 0x1776D, offset: 0x1776D, size: 0x8, addend: 0x0, symName: __ZNKSt3__112basic_stringIcNS_11char_traitsIcEENS_9allocatorIcEEE9__is_longB7v160006Ev, symObjAddr: 0x22C8, symBinAddr: 0x100003D5C, symSize: 0x38 }
  - { offsetInCU: 0x17790, offset: 0x17790, size: 0x8, addend: 0x0, symName: __ZNKSt3__112basic_stringIcNS_11char_traitsIcEENS_9allocatorIcEEE9__is_longB7v160006Ev, symObjAddr: 0x22C8, symBinAddr: 0x100003D5C, symSize: 0x38 }
  - { offsetInCU: 0x17798, offset: 0x17798, size: 0x8, addend: 0x0, symName: __ZNSt3__111char_traitsIcE7compareEPKcS3_m, symObjAddr: 0x2300, symBinAddr: 0x100003D94, symSize: 0x6C }
  - { offsetInCU: 0x177BB, offset: 0x177BB, size: 0x8, addend: 0x0, symName: __ZNSt3__111char_traitsIcE7compareEPKcS3_m, symObjAddr: 0x2300, symBinAddr: 0x100003D94, symSize: 0x6C }
  - { offsetInCU: 0x177C3, offset: 0x177C3, size: 0x8, addend: 0x0, symName: __ZNKSt3__112basic_stringIcNS_11char_traitsIcEENS_9allocatorIcEEE15__get_long_sizeB7v160006Ev, symObjAddr: 0x236C, symBinAddr: 0x100003E00, symSize: 0x28 }
  - { offsetInCU: 0x177FE, offset: 0x177FE, size: 0x8, addend: 0x0, symName: __ZNKSt3__112basic_stringIcNS_11char_traitsIcEENS_9allocatorIcEEE15__get_long_sizeB7v160006Ev, symObjAddr: 0x236C, symBinAddr: 0x100003E00, symSize: 0x28 }
  - { offsetInCU: 0x17806, offset: 0x17806, size: 0x8, addend: 0x0, symName: __ZNKSt3__112basic_stringIcNS_11char_traitsIcEENS_9allocatorIcEEE16__get_short_sizeB7v160006Ev, symObjAddr: 0x2394, symBinAddr: 0x100003E28, symSize: 0x34 }
  - { offsetInCU: 0x17829, offset: 0x17829, size: 0x8, addend: 0x0, symName: __ZNKSt3__112basic_stringIcNS_11char_traitsIcEENS_9allocatorIcEEE16__get_short_sizeB7v160006Ev, symObjAddr: 0x2394, symBinAddr: 0x100003E28, symSize: 0x34 }
  - { offsetInCU: 0x17831, offset: 0x17831, size: 0x8, addend: 0x0, symName: __ZNKSt3__117__compressed_pairINS_12basic_stringIcNS_11char_traitsIcEENS_9allocatorIcEEE5__repES5_E5firstB7v160006Ev, symObjAddr: 0x23C8, symBinAddr: 0x100003E5C, symSize: 0x24 }
  - { offsetInCU: 0x17854, offset: 0x17854, size: 0x8, addend: 0x0, symName: __ZNKSt3__117__compressed_pairINS_12basic_stringIcNS_11char_traitsIcEENS_9allocatorIcEEE5__repES5_E5firstB7v160006Ev, symObjAddr: 0x23C8, symBinAddr: 0x100003E5C, symSize: 0x24 }
  - { offsetInCU: 0x1785C, offset: 0x1785C, size: 0x8, addend: 0x0, symName: __ZNKSt3__122__compressed_pair_elemINS_12basic_stringIcNS_11char_traitsIcEENS_9allocatorIcEEE5__repELi0ELb0EE5__getB7v160006Ev, symObjAddr: 0x23EC, symBinAddr: 0x100003E80, symSize: 0x14 }
  - { offsetInCU: 0x1787F, offset: 0x1787F, size: 0x8, addend: 0x0, symName: __ZNKSt3__122__compressed_pair_elemINS_12basic_stringIcNS_11char_traitsIcEENS_9allocatorIcEEE5__repELi0ELb0EE5__getB7v160006Ev, symObjAddr: 0x23EC, symBinAddr: 0x100003E80, symSize: 0x14 }
  - { offsetInCU: 0x17887, offset: 0x17887, size: 0x8, addend: 0x0, symName: __ZNSt3__112__to_addressB7v160006IKcEEPT_S3_, symObjAddr: 0x2400, symBinAddr: 0x100003E94, symSize: 0x14 }
  - { offsetInCU: 0x178AB, offset: 0x178AB, size: 0x8, addend: 0x0, symName: __ZNKSt3__112basic_stringIcNS_11char_traitsIcEENS_9allocatorIcEEE13__get_pointerB7v160006Ev, symObjAddr: 0x2414, symBinAddr: 0x100003EA8, symSize: 0x54 }
  - { offsetInCU: 0x178B3, offset: 0x178B3, size: 0x8, addend: 0x0, symName: __ZNKSt3__112basic_stringIcNS_11char_traitsIcEENS_9allocatorIcEEE18__get_long_pointerB7v160006Ev, symObjAddr: 0x2468, symBinAddr: 0x100003EFC, symSize: 0x28 }
  - { offsetInCU: 0x178D6, offset: 0x178D6, size: 0x8, addend: 0x0, symName: __ZNKSt3__112basic_stringIcNS_11char_traitsIcEENS_9allocatorIcEEE18__get_long_pointerB7v160006Ev, symObjAddr: 0x2468, symBinAddr: 0x100003EFC, symSize: 0x28 }
  - { offsetInCU: 0x178DE, offset: 0x178DE, size: 0x8, addend: 0x0, symName: __ZNKSt3__112basic_stringIcNS_11char_traitsIcEENS_9allocatorIcEEE19__get_short_pointerB7v160006Ev, symObjAddr: 0x2490, symBinAddr: 0x100003F24, symSize: 0x28 }
  - { offsetInCU: 0x17901, offset: 0x17901, size: 0x8, addend: 0x0, symName: __ZNKSt3__112basic_stringIcNS_11char_traitsIcEENS_9allocatorIcEEE19__get_short_pointerB7v160006Ev, symObjAddr: 0x2490, symBinAddr: 0x100003F24, symSize: 0x28 }
  - { offsetInCU: 0x17909, offset: 0x17909, size: 0x8, addend: 0x0, symName: __ZNSt3__114pointer_traitsIPKcE10pointer_toB7v160006ERS1_, symObjAddr: 0x24B8, symBinAddr: 0x100003F4C, symSize: 0x14 }
  - { offsetInCU: 0x1792C, offset: 0x1792C, size: 0x8, addend: 0x0, symName: __ZNSt3__114pointer_traitsIPKcE10pointer_toB7v160006ERS1_, symObjAddr: 0x24B8, symBinAddr: 0x100003F4C, symSize: 0x14 }
  - { offsetInCU: 0x17934, offset: 0x17934, size: 0x8, addend: 0x0, symName: __ZNSt3__118__constexpr_memcmpB7v160006IcEEiPKT_S3_m, symObjAddr: 0x24CC, symBinAddr: 0x100003F60, symSize: 0x34 }
  - { offsetInCU: 0x17954, offset: 0x17954, size: 0x8, addend: 0x0, symName: __ZNSt3__16vectorINS_12basic_stringIcNS_11char_traitsIcEENS_9allocatorIcEEEENS4_IS6_EEE9__end_capB7v160006Ev, symObjAddr: 0x2500, symBinAddr: 0x100003F94, symSize: 0x28 }
  - { offsetInCU: 0x1795C, offset: 0x1795C, size: 0x8, addend: 0x0, symName: __ZNSt3__16vectorINS_12basic_stringIcNS_11char_traitsIcEENS_9allocatorIcEEEENS4_IS6_EEE22__construct_one_at_endB7v160006IJS6_EEEvDpOT_, symObjAddr: 0x2528, symBinAddr: 0x100003FBC, symSize: 0x90 }
  - { offsetInCU: 0x17985, offset: 0x17985, size: 0x8, addend: 0x0, symName: __ZNSt3__16vectorINS_12basic_stringIcNS_11char_traitsIcEENS_9allocatorIcEEEENS4_IS6_EEE22__construct_one_at_endB7v160006IJS6_EEEvDpOT_, symObjAddr: 0x2528, symBinAddr: 0x100003FBC, symSize: 0x90 }
  - { offsetInCU: 0x1798D, offset: 0x1798D, size: 0x8, addend: 0x0, symName: __ZNSt3__16vectorINS_12basic_stringIcNS_11char_traitsIcEENS_9allocatorIcEEEENS4_IS6_EEE21__push_back_slow_pathIS6_EEvOT_, symObjAddr: 0x25B8, symBinAddr: 0x10000404C, symSize: 0xD8 }
  - { offsetInCU: 0x179D9, offset: 0x179D9, size: 0x8, addend: 0x0, symName: __ZNSt3__16vectorINS_12basic_stringIcNS_11char_traitsIcEENS_9allocatorIcEEEENS4_IS6_EEE21__push_back_slow_pathIS6_EEvOT_, symObjAddr: 0x25B8, symBinAddr: 0x10000404C, symSize: 0xD8 }
  - { offsetInCU: 0x179E1, offset: 0x179E1, size: 0x8, addend: 0x0, symName: __ZNSt3__117__compressed_pairIPNS_12basic_stringIcNS_11char_traitsIcEENS_9allocatorIcEEEENS4_IS6_EEE5firstB7v160006Ev, symObjAddr: 0x2690, symBinAddr: 0x100004124, symSize: 0x24 }
  - { offsetInCU: 0x17A3C, offset: 0x17A3C, size: 0x8, addend: 0x0, symName: __ZNSt3__117__compressed_pairIPNS_12basic_stringIcNS_11char_traitsIcEENS_9allocatorIcEEEENS4_IS6_EEE5firstB7v160006Ev, symObjAddr: 0x2690, symBinAddr: 0x100004124, symSize: 0x24 }
  - { offsetInCU: 0x17A44, offset: 0x17A44, size: 0x8, addend: 0x0, symName: __ZNSt3__122__compressed_pair_elemIPNS_12basic_stringIcNS_11char_traitsIcEENS_9allocatorIcEEEELi0ELb0EE5__getB7v160006Ev, symObjAddr: 0x26B4, symBinAddr: 0x100004148, symSize: 0x14 }
  - { offsetInCU: 0x17A67, offset: 0x17A67, size: 0x8, addend: 0x0, symName: __ZNSt3__122__compressed_pair_elemIPNS_12basic_stringIcNS_11char_traitsIcEENS_9allocatorIcEEEELi0ELb0EE5__getB7v160006Ev, symObjAddr: 0x26B4, symBinAddr: 0x100004148, symSize: 0x14 }
  - { offsetInCU: 0x17A6F, offset: 0x17A6F, size: 0x8, addend: 0x0, symName: __ZNSt3__16vectorINS_12basic_stringIcNS_11char_traitsIcEENS_9allocatorIcEEEENS4_IS6_EEE21_ConstructTransactionC1B7v160006ERS8_m, symObjAddr: 0x26C8, symBinAddr: 0x10000415C, symSize: 0x3C }
  - { offsetInCU: 0x17AAF, offset: 0x17AAF, size: 0x8, addend: 0x0, symName: __ZNSt3__16vectorINS_12basic_stringIcNS_11char_traitsIcEENS_9allocatorIcEEEENS4_IS6_EEE21_ConstructTransactionC1B7v160006ERS8_m, symObjAddr: 0x26C8, symBinAddr: 0x10000415C, symSize: 0x3C }
  - { offsetInCU: 0x17AB7, offset: 0x17AB7, size: 0x8, addend: 0x0, symName: __ZNSt3__116allocator_traitsINS_9allocatorINS_12basic_stringIcNS_11char_traitsIcEENS1_IcEEEEEEE9constructB7v160006IS6_JS6_EvvEEvRS7_PT_DpOT0_, symObjAddr: 0x2704, symBinAddr: 0x100004198, symSize: 0x30 }
  - { offsetInCU: 0x17AFC, offset: 0x17AFC, size: 0x8, addend: 0x0, symName: __ZNSt3__116allocator_traitsINS_9allocatorINS_12basic_stringIcNS_11char_traitsIcEENS1_IcEEEEEEE9constructB7v160006IS6_JS6_EvvEEvRS7_PT_DpOT0_, symObjAddr: 0x2704, symBinAddr: 0x100004198, symSize: 0x30 }
  - { offsetInCU: 0x17B04, offset: 0x17B04, size: 0x8, addend: 0x0, symName: __ZNSt3__16vectorINS_12basic_stringIcNS_11char_traitsIcEENS_9allocatorIcEEEENS4_IS6_EEE7__allocB7v160006Ev, symObjAddr: 0x2734, symBinAddr: 0x1000041C8, symSize: 0x28 }
  - { offsetInCU: 0x17B55, offset: 0x17B55, size: 0x8, addend: 0x0, symName: __ZNSt3__16vectorINS_12basic_stringIcNS_11char_traitsIcEENS_9allocatorIcEEEENS4_IS6_EEE7__allocB7v160006Ev, symObjAddr: 0x2734, symBinAddr: 0x1000041C8, symSize: 0x28 }
  - { offsetInCU: 0x17B5D, offset: 0x17B5D, size: 0x8, addend: 0x0, symName: __ZNSt3__112__to_addressB7v160006INS_12basic_stringIcNS_11char_traitsIcEENS_9allocatorIcEEEEEEPT_S8_, symObjAddr: 0x275C, symBinAddr: 0x1000041F0, symSize: 0x14 }
  - { offsetInCU: 0x17B80, offset: 0x17B80, size: 0x8, addend: 0x0, symName: __ZNSt3__16vectorINS_12basic_stringIcNS_11char_traitsIcEENS_9allocatorIcEEEENS4_IS6_EEE21_ConstructTransactionD1B7v160006Ev, symObjAddr: 0x2770, symBinAddr: 0x100004204, symSize: 0x2C }
  - { offsetInCU: 0x17B88, offset: 0x17B88, size: 0x8, addend: 0x0, symName: __ZNSt3__16vectorINS_12basic_stringIcNS_11char_traitsIcEENS_9allocatorIcEEEENS4_IS6_EEE21_ConstructTransactionC2B7v160006ERS8_m, symObjAddr: 0x279C, symBinAddr: 0x100004230, symSize: 0x4C }
  - { offsetInCU: 0x17BAF, offset: 0x17BAF, size: 0x8, addend: 0x0, symName: __ZNSt3__16vectorINS_12basic_stringIcNS_11char_traitsIcEENS_9allocatorIcEEEENS4_IS6_EEE21_ConstructTransactionC2B7v160006ERS8_m, symObjAddr: 0x279C, symBinAddr: 0x100004230, symSize: 0x4C }
  - { offsetInCU: 0x17BB7, offset: 0x17BB7, size: 0x8, addend: 0x0, symName: __ZNSt3__112construct_atB7v160006INS_12basic_stringIcNS_11char_traitsIcEENS_9allocatorIcEEEEJS6_EPS6_EEPT_S9_DpOT0_, symObjAddr: 0x27E8, symBinAddr: 0x10000427C, symSize: 0x3C }
  - { offsetInCU: 0x17BFD, offset: 0x17BFD, size: 0x8, addend: 0x0, symName: __ZNSt3__112basic_stringIcNS_11char_traitsIcEENS_9allocatorIcEEEC1B7v160006EOS5_, symObjAddr: 0x2824, symBinAddr: 0x1000042B8, symSize: 0x34 }
  - { offsetInCU: 0x17C05, offset: 0x17C05, size: 0x8, addend: 0x0, symName: __ZNSt3__112basic_stringIcNS_11char_traitsIcEENS_9allocatorIcEEEC2B7v160006EOS5_, symObjAddr: 0x2858, symBinAddr: 0x1000042EC, symSize: 0x88 }
  - { offsetInCU: 0x17C3B, offset: 0x17C3B, size: 0x8, addend: 0x0, symName: __ZNSt3__112basic_stringIcNS_11char_traitsIcEENS_9allocatorIcEEEC2B7v160006EOS5_, symObjAddr: 0x2858, symBinAddr: 0x1000042EC, symSize: 0x88 }
  - { offsetInCU: 0x17C43, offset: 0x17C43, size: 0x8, addend: 0x0, symName: __ZNSt3__112basic_stringIcNS_11char_traitsIcEENS_9allocatorIcEEE14__default_initB7v160006Ev, symObjAddr: 0x28E0, symBinAddr: 0x100004374, symSize: 0x40 }
  - { offsetInCU: 0x17C79, offset: 0x17C79, size: 0x8, addend: 0x0, symName: __ZNSt3__112basic_stringIcNS_11char_traitsIcEENS_9allocatorIcEEE14__default_initB7v160006Ev, symObjAddr: 0x28E0, symBinAddr: 0x100004374, symSize: 0x40 }
  - { offsetInCU: 0x17C81, offset: 0x17C81, size: 0x8, addend: 0x0, symName: __ZNSt3__119__debug_db_insert_cB7v160006INS_12basic_stringIcNS_11char_traitsIcEENS_9allocatorIcEEEEEEvPT_, symObjAddr: 0x2920, symBinAddr: 0x1000043B4, symSize: 0x10 }
  - { offsetInCU: 0x17CA4, offset: 0x17CA4, size: 0x8, addend: 0x0, symName: __ZNSt3__117__compressed_pairINS_12basic_stringIcNS_11char_traitsIcEENS_9allocatorIcEEE5__repES5_E5firstB7v160006Ev, symObjAddr: 0x2944, symBinAddr: 0x1000043D8, symSize: 0x24 }
  - { offsetInCU: 0x17CAC, offset: 0x17CAC, size: 0x8, addend: 0x0, symName: __ZNSt3__122__compressed_pair_elemINS_12basic_stringIcNS_11char_traitsIcEENS_9allocatorIcEEE5__repELi0ELb0EE5__getB7v160006Ev, symObjAddr: 0x2968, symBinAddr: 0x1000043FC, symSize: 0x14 }
  - { offsetInCU: 0x17CCF, offset: 0x17CCF, size: 0x8, addend: 0x0, symName: __ZNSt3__122__compressed_pair_elemINS_12basic_stringIcNS_11char_traitsIcEENS_9allocatorIcEEE5__repELi0ELb0EE5__getB7v160006Ev, symObjAddr: 0x2968, symBinAddr: 0x1000043FC, symSize: 0x14 }
  - { offsetInCU: 0x17CD7, offset: 0x17CD7, size: 0x8, addend: 0x0, symName: __ZNSt3__117__compressed_pairIPNS_12basic_stringIcNS_11char_traitsIcEENS_9allocatorIcEEEENS4_IS6_EEE6secondB7v160006Ev, symObjAddr: 0x297C, symBinAddr: 0x100004410, symSize: 0x24 }
  - { offsetInCU: 0x17CFB, offset: 0x17CFB, size: 0x8, addend: 0x0, symName: __ZNSt3__117__compressed_pairIPNS_12basic_stringIcNS_11char_traitsIcEENS_9allocatorIcEEEENS4_IS6_EEE6secondB7v160006Ev, symObjAddr: 0x297C, symBinAddr: 0x100004410, symSize: 0x24 }
  - { offsetInCU: 0x17D03, offset: 0x17D03, size: 0x8, addend: 0x0, symName: __ZNSt3__122__compressed_pair_elemINS_9allocatorINS_12basic_stringIcNS_11char_traitsIcEENS1_IcEEEEEELi1ELb1EE5__getB7v160006Ev, symObjAddr: 0x29A0, symBinAddr: 0x100004434, symSize: 0x14 }
  - { offsetInCU: 0x17D26, offset: 0x17D26, size: 0x8, addend: 0x0, symName: __ZNSt3__122__compressed_pair_elemINS_9allocatorINS_12basic_stringIcNS_11char_traitsIcEENS1_IcEEEEEELi1ELb1EE5__getB7v160006Ev, symObjAddr: 0x29A0, symBinAddr: 0x100004434, symSize: 0x14 }
  - { offsetInCU: 0x17D2E, offset: 0x17D2E, size: 0x8, addend: 0x0, symName: __ZNSt3__16vectorINS_12basic_stringIcNS_11char_traitsIcEENS_9allocatorIcEEEENS4_IS6_EEE21_ConstructTransactionD2B7v160006Ev, symObjAddr: 0x29B4, symBinAddr: 0x100004448, symSize: 0x20 }
  - { offsetInCU: 0x17D52, offset: 0x17D52, size: 0x8, addend: 0x0, symName: __ZNSt3__16vectorINS_12basic_stringIcNS_11char_traitsIcEENS_9allocatorIcEEEENS4_IS6_EEE21_ConstructTransactionD2B7v160006Ev, symObjAddr: 0x29B4, symBinAddr: 0x100004448, symSize: 0x20 }
  - { offsetInCU: 0x17D5A, offset: 0x17D5A, size: 0x8, addend: 0x0, symName: __ZNKSt3__16vectorINS_12basic_stringIcNS_11char_traitsIcEENS_9allocatorIcEEEENS4_IS6_EEE11__recommendB7v160006Em, symObjAddr: 0x29D4, symBinAddr: 0x100004468, symSize: 0xB4 }
  - { offsetInCU: 0x17D82, offset: 0x17D82, size: 0x8, addend: 0x0, symName: __ZNKSt3__16vectorINS_12basic_stringIcNS_11char_traitsIcEENS_9allocatorIcEEEENS4_IS6_EEE11__recommendB7v160006Em, symObjAddr: 0x29D4, symBinAddr: 0x100004468, symSize: 0xB4 }
  - { offsetInCU: 0x17D8A, offset: 0x17D8A, size: 0x8, addend: 0x0, symName: __ZNSt3__114__split_bufferINS_12basic_stringIcNS_11char_traitsIcEENS_9allocatorIcEEEERNS4_IS6_EEEC1EmmS8_, symObjAddr: 0x2A88, symBinAddr: 0x10000451C, symSize: 0x44 }
  - { offsetInCU: 0x17DDC, offset: 0x17DDC, size: 0x8, addend: 0x0, symName: __ZNSt3__114__split_bufferINS_12basic_stringIcNS_11char_traitsIcEENS_9allocatorIcEEEERNS4_IS6_EEEC1EmmS8_, symObjAddr: 0x2A88, symBinAddr: 0x10000451C, symSize: 0x44 }
  - { offsetInCU: 0x17DE4, offset: 0x17DE4, size: 0x8, addend: 0x0, symName: __ZNSt3__16vectorINS_12basic_stringIcNS_11char_traitsIcEENS_9allocatorIcEEEENS4_IS6_EEE26__swap_out_circular_bufferERNS_14__split_bufferIS6_RS7_EE, symObjAddr: 0x2ACC, symBinAddr: 0x100004560, symSize: 0x118 }
  - { offsetInCU: 0x17E37, offset: 0x17E37, size: 0x8, addend: 0x0, symName: __ZNSt3__114__split_bufferINS_12basic_stringIcNS_11char_traitsIcEENS_9allocatorIcEEEERNS4_IS6_EEED1Ev, symObjAddr: 0x2BE4, symBinAddr: 0x100004678, symSize: 0x2C }
  - { offsetInCU: 0x17E3F, offset: 0x17E3F, size: 0x8, addend: 0x0, symName: __ZNKSt3__16vectorINS_12basic_stringIcNS_11char_traitsIcEENS_9allocatorIcEEEENS4_IS6_EEE8max_sizeEv, symObjAddr: 0x2C10, symBinAddr: 0x1000046A4, symSize: 0x60 }
  - { offsetInCU: 0x17E68, offset: 0x17E68, size: 0x8, addend: 0x0, symName: __ZNKSt3__16vectorINS_12basic_stringIcNS_11char_traitsIcEENS_9allocatorIcEEEENS4_IS6_EEE8max_sizeEv, symObjAddr: 0x2C10, symBinAddr: 0x1000046A4, symSize: 0x60 }
  - { offsetInCU: 0x17E70, offset: 0x17E70, size: 0x8, addend: 0x0, symName: __ZNKSt3__16vectorINS_12basic_stringIcNS_11char_traitsIcEENS_9allocatorIcEEEENS4_IS6_EEE20__throw_length_errorB7v160006Ev, symObjAddr: 0x2C70, symBinAddr: 0x100004704, symSize: 0x1C }
  - { offsetInCU: 0x17E95, offset: 0x17E95, size: 0x8, addend: 0x0, symName: __ZNKSt3__16vectorINS_12basic_stringIcNS_11char_traitsIcEENS_9allocatorIcEEEENS4_IS6_EEE20__throw_length_errorB7v160006Ev, symObjAddr: 0x2C70, symBinAddr: 0x100004704, symSize: 0x1C }
  - { offsetInCU: 0x17E9D, offset: 0x17E9D, size: 0x8, addend: 0x0, symName: __ZNKSt3__16vectorINS_12basic_stringIcNS_11char_traitsIcEENS_9allocatorIcEEEENS4_IS6_EEE8capacityB7v160006Ev, symObjAddr: 0x2C8C, symBinAddr: 0x100004720, symSize: 0x40 }
  - { offsetInCU: 0x17EC0, offset: 0x17EC0, size: 0x8, addend: 0x0, symName: __ZNKSt3__16vectorINS_12basic_stringIcNS_11char_traitsIcEENS_9allocatorIcEEEENS4_IS6_EEE8capacityB7v160006Ev, symObjAddr: 0x2C8C, symBinAddr: 0x100004720, symSize: 0x40 }
  - { offsetInCU: 0x17EC8, offset: 0x17EC8, size: 0x8, addend: 0x0, symName: __ZNSt3__13maxB7v160006ImEERKT_S3_S3_, symObjAddr: 0x2CCC, symBinAddr: 0x100004760, symSize: 0x2C }
  - { offsetInCU: 0x17EF6, offset: 0x17EF6, size: 0x8, addend: 0x0, symName: __ZNSt3__116allocator_traitsINS_9allocatorINS_12basic_stringIcNS_11char_traitsIcEENS1_IcEEEEEEE8max_sizeB7v160006IS7_vvEEmRKS7_, symObjAddr: 0x2D24, symBinAddr: 0x1000047B8, symSize: 0x28 }
  - { offsetInCU: 0x17EFE, offset: 0x17EFE, size: 0x8, addend: 0x0, symName: __ZNKSt3__16vectorINS_12basic_stringIcNS_11char_traitsIcEENS_9allocatorIcEEEENS4_IS6_EEE7__allocB7v160006Ev, symObjAddr: 0x2D4C, symBinAddr: 0x1000047E0, symSize: 0x28 }
  - { offsetInCU: 0x17F26, offset: 0x17F26, size: 0x8, addend: 0x0, symName: __ZNKSt3__16vectorINS_12basic_stringIcNS_11char_traitsIcEENS_9allocatorIcEEEENS4_IS6_EEE7__allocB7v160006Ev, symObjAddr: 0x2D4C, symBinAddr: 0x1000047E0, symSize: 0x28 }
  - { offsetInCU: 0x17F2E, offset: 0x17F2E, size: 0x8, addend: 0x0, symName: __ZNSt3__114numeric_limitsIlE3maxB7v160006Ev, symObjAddr: 0x2D74, symBinAddr: 0x100004808, symSize: 0x14 }
  - { offsetInCU: 0x17F51, offset: 0x17F51, size: 0x8, addend: 0x0, symName: __ZNSt3__114numeric_limitsIlE3maxB7v160006Ev, symObjAddr: 0x2D74, symBinAddr: 0x100004808, symSize: 0x14 }
  - { offsetInCU: 0x17F59, offset: 0x17F59, size: 0x8, addend: 0x0, symName: __ZNSt3__13minB7v160006ImNS_6__lessImmEEEERKT_S5_S5_T0_, symObjAddr: 0x2D88, symBinAddr: 0x10000481C, symSize: 0x54 }
  - { offsetInCU: 0x17F74, offset: 0x17F74, size: 0x8, addend: 0x0, symName: __ZNKSt3__16__lessImmEclB7v160006ERKmS3_, symObjAddr: 0x2DDC, symBinAddr: 0x100004870, symSize: 0x34 }
  - { offsetInCU: 0x17F7C, offset: 0x17F7C, size: 0x8, addend: 0x0, symName: __ZNSt3__114numeric_limitsImE3maxB7v160006Ev, symObjAddr: 0x2E10, symBinAddr: 0x1000048A4, symSize: 0x14 }
  - { offsetInCU: 0x17FBC, offset: 0x17FBC, size: 0x8, addend: 0x0, symName: __ZNSt3__114numeric_limitsImE3maxB7v160006Ev, symObjAddr: 0x2E10, symBinAddr: 0x1000048A4, symSize: 0x14 }
  - { offsetInCU: 0x17FC4, offset: 0x17FC4, size: 0x8, addend: 0x0, symName: __ZNSt3__123__libcpp_numeric_limitsImLb1EE3maxB7v160006Ev, symObjAddr: 0x2E24, symBinAddr: 0x1000048B8, symSize: 0x8 }
  - { offsetInCU: 0x17FD4, offset: 0x17FD4, size: 0x8, addend: 0x0, symName: __ZNSt3__123__libcpp_numeric_limitsImLb1EE3maxB7v160006Ev, symObjAddr: 0x2E24, symBinAddr: 0x1000048B8, symSize: 0x8 }
  - { offsetInCU: 0x17FDC, offset: 0x17FDC, size: 0x8, addend: 0x0, symName: __ZNKSt3__117__compressed_pairIPNS_12basic_stringIcNS_11char_traitsIcEENS_9allocatorIcEEEENS4_IS6_EEE6secondB7v160006Ev, symObjAddr: 0x2E2C, symBinAddr: 0x1000048C0, symSize: 0x24 }
  - { offsetInCU: 0x17FED, offset: 0x17FED, size: 0x8, addend: 0x0, symName: __ZNKSt3__117__compressed_pairIPNS_12basic_stringIcNS_11char_traitsIcEENS_9allocatorIcEEEENS4_IS6_EEE6secondB7v160006Ev, symObjAddr: 0x2E2C, symBinAddr: 0x1000048C0, symSize: 0x24 }
  - { offsetInCU: 0x17FF5, offset: 0x17FF5, size: 0x8, addend: 0x0, symName: __ZNKSt3__122__compressed_pair_elemINS_9allocatorINS_12basic_stringIcNS_11char_traitsIcEENS1_IcEEEEEELi1ELb1EE5__getB7v160006Ev, symObjAddr: 0x2E50, symBinAddr: 0x1000048E4, symSize: 0x14 }
  - { offsetInCU: 0x18018, offset: 0x18018, size: 0x8, addend: 0x0, symName: __ZNKSt3__122__compressed_pair_elemINS_9allocatorINS_12basic_stringIcNS_11char_traitsIcEENS1_IcEEEEEELi1ELb1EE5__getB7v160006Ev, symObjAddr: 0x2E50, symBinAddr: 0x1000048E4, symSize: 0x14 }
  - { offsetInCU: 0x18020, offset: 0x18020, size: 0x8, addend: 0x0, symName: __ZNSt3__123__libcpp_numeric_limitsIlLb1EE3maxB7v160006Ev, symObjAddr: 0x2E64, symBinAddr: 0x1000048F8, symSize: 0x8 }
  - { offsetInCU: 0x18044, offset: 0x18044, size: 0x8, addend: 0x0, symName: __ZNSt3__123__libcpp_numeric_limitsIlLb1EE3maxB7v160006Ev, symObjAddr: 0x2E64, symBinAddr: 0x1000048F8, symSize: 0x8 }
  - { offsetInCU: 0x1804C, offset: 0x1804C, size: 0x8, addend: 0x0, symName: __ZNSt3__120__throw_length_errorB7v160006EPKc, symObjAddr: 0x2E6C, symBinAddr: 0x100004900, symSize: 0x64 }
  - { offsetInCU: 0x1805D, offset: 0x1805D, size: 0x8, addend: 0x0, symName: __ZNSt12length_errorC1B7v160006EPKc, symObjAddr: 0x2ED0, symBinAddr: 0x100004964, symSize: 0x34 }
  - { offsetInCU: 0x18065, offset: 0x18065, size: 0x8, addend: 0x0, symName: __ZNSt12length_errorC2B7v160006EPKc, symObjAddr: 0x2F04, symBinAddr: 0x100004998, symSize: 0x4C }
  - { offsetInCU: 0x1809A, offset: 0x1809A, size: 0x8, addend: 0x0, symName: __ZNSt12length_errorC2B7v160006EPKc, symObjAddr: 0x2F04, symBinAddr: 0x100004998, symSize: 0x4C }
  - { offsetInCU: 0x180A2, offset: 0x180A2, size: 0x8, addend: 0x0, symName: __ZNKSt3__16vectorINS_12basic_stringIcNS_11char_traitsIcEENS_9allocatorIcEEEENS4_IS6_EEE9__end_capB7v160006Ev, symObjAddr: 0x2F50, symBinAddr: 0x1000049E4, symSize: 0x28 }
  - { offsetInCU: 0x180D7, offset: 0x180D7, size: 0x8, addend: 0x0, symName: __ZNKSt3__16vectorINS_12basic_stringIcNS_11char_traitsIcEENS_9allocatorIcEEEENS4_IS6_EEE9__end_capB7v160006Ev, symObjAddr: 0x2F50, symBinAddr: 0x1000049E4, symSize: 0x28 }
  - { offsetInCU: 0x180DF, offset: 0x180DF, size: 0x8, addend: 0x0, symName: __ZNKSt3__117__compressed_pairIPNS_12basic_stringIcNS_11char_traitsIcEENS_9allocatorIcEEEENS4_IS6_EEE5firstB7v160006Ev, symObjAddr: 0x2F78, symBinAddr: 0x100004A0C, symSize: 0x24 }
  - { offsetInCU: 0x18102, offset: 0x18102, size: 0x8, addend: 0x0, symName: __ZNKSt3__117__compressed_pairIPNS_12basic_stringIcNS_11char_traitsIcEENS_9allocatorIcEEEENS4_IS6_EEE5firstB7v160006Ev, symObjAddr: 0x2F78, symBinAddr: 0x100004A0C, symSize: 0x24 }
  - { offsetInCU: 0x1810A, offset: 0x1810A, size: 0x8, addend: 0x0, symName: __ZNKSt3__122__compressed_pair_elemIPNS_12basic_stringIcNS_11char_traitsIcEENS_9allocatorIcEEEELi0ELb0EE5__getB7v160006Ev, symObjAddr: 0x2F9C, symBinAddr: 0x100004A30, symSize: 0x14 }
  - { offsetInCU: 0x1812D, offset: 0x1812D, size: 0x8, addend: 0x0, symName: __ZNKSt3__122__compressed_pair_elemIPNS_12basic_stringIcNS_11char_traitsIcEENS_9allocatorIcEEEELi0ELb0EE5__getB7v160006Ev, symObjAddr: 0x2F9C, symBinAddr: 0x100004A30, symSize: 0x14 }
  - { offsetInCU: 0x18135, offset: 0x18135, size: 0x8, addend: 0x0, symName: __ZNSt3__13maxB7v160006ImNS_6__lessImmEEEERKT_S5_S5_T0_, symObjAddr: 0x2FB0, symBinAddr: 0x100004A44, symSize: 0x54 }
  - { offsetInCU: 0x18159, offset: 0x18159, size: 0x8, addend: 0x0, symName: __ZNSt3__114__split_bufferINS_12basic_stringIcNS_11char_traitsIcEENS_9allocatorIcEEEERNS4_IS6_EEEC2EmmS8_, symObjAddr: 0x3004, symBinAddr: 0x100004A98, symSize: 0xE0 }
  - { offsetInCU: 0x18161, offset: 0x18161, size: 0x8, addend: 0x0, symName: __ZNSt3__117__compressed_pairIPNS_12basic_stringIcNS_11char_traitsIcEENS_9allocatorIcEEEERNS4_IS6_EEEC1B7v160006IDnS9_EEOT_OT0_, symObjAddr: 0x30E4, symBinAddr: 0x100004B78, symSize: 0x3C }
  - { offsetInCU: 0x181DB, offset: 0x181DB, size: 0x8, addend: 0x0, symName: __ZNSt3__117__compressed_pairIPNS_12basic_stringIcNS_11char_traitsIcEENS_9allocatorIcEEEERNS4_IS6_EEEC1B7v160006IDnS9_EEOT_OT0_, symObjAddr: 0x30E4, symBinAddr: 0x100004B78, symSize: 0x3C }
  - { offsetInCU: 0x181E3, offset: 0x181E3, size: 0x8, addend: 0x0, symName: __ZNSt3__119__allocate_at_leastB7v160006INS_9allocatorINS_12basic_stringIcNS_11char_traitsIcEENS1_IcEEEEEEEENS_19__allocation_resultINS_16allocator_traitsIT_E7pointerEEERSA_m, symObjAddr: 0x3120, symBinAddr: 0x100004BB4, symSize: 0x40 }
  - { offsetInCU: 0x18238, offset: 0x18238, size: 0x8, addend: 0x0, symName: __ZNSt3__114__split_bufferINS_12basic_stringIcNS_11char_traitsIcEENS_9allocatorIcEEEERNS4_IS6_EEE7__allocB7v160006Ev, symObjAddr: 0x3160, symBinAddr: 0x100004BF4, symSize: 0x28 }
  - { offsetInCU: 0x18240, offset: 0x18240, size: 0x8, addend: 0x0, symName: __ZNSt3__114__split_bufferINS_12basic_stringIcNS_11char_traitsIcEENS_9allocatorIcEEEERNS4_IS6_EEE9__end_capB7v160006Ev, symObjAddr: 0x3188, symBinAddr: 0x100004C1C, symSize: 0x28 }
  - { offsetInCU: 0x18263, offset: 0x18263, size: 0x8, addend: 0x0, symName: __ZNSt3__114__split_bufferINS_12basic_stringIcNS_11char_traitsIcEENS_9allocatorIcEEEERNS4_IS6_EEE9__end_capB7v160006Ev, symObjAddr: 0x3188, symBinAddr: 0x100004C1C, symSize: 0x28 }
  - { offsetInCU: 0x1826B, offset: 0x1826B, size: 0x8, addend: 0x0, symName: __ZNSt3__117__compressed_pairIPNS_12basic_stringIcNS_11char_traitsIcEENS_9allocatorIcEEEERNS4_IS6_EEEC2B7v160006IDnS9_EEOT_OT0_, symObjAddr: 0x31B0, symBinAddr: 0x100004C44, symSize: 0x48 }
  - { offsetInCU: 0x1828E, offset: 0x1828E, size: 0x8, addend: 0x0, symName: __ZNSt3__117__compressed_pairIPNS_12basic_stringIcNS_11char_traitsIcEENS_9allocatorIcEEEERNS4_IS6_EEEC2B7v160006IDnS9_EEOT_OT0_, symObjAddr: 0x31B0, symBinAddr: 0x100004C44, symSize: 0x48 }
  - { offsetInCU: 0x18296, offset: 0x18296, size: 0x8, addend: 0x0, symName: __ZNSt3__122__compressed_pair_elemIPNS_12basic_stringIcNS_11char_traitsIcEENS_9allocatorIcEEEELi0ELb0EEC2B7v160006IDnvEEOT_, symObjAddr: 0x31F8, symBinAddr: 0x100004C8C, symSize: 0x1C }
  - { offsetInCU: 0x182EB, offset: 0x182EB, size: 0x8, addend: 0x0, symName: __ZNSt3__122__compressed_pair_elemIPNS_12basic_stringIcNS_11char_traitsIcEENS_9allocatorIcEEEELi0ELb0EEC2B7v160006IDnvEEOT_, symObjAddr: 0x31F8, symBinAddr: 0x100004C8C, symSize: 0x1C }
  - { offsetInCU: 0x182F3, offset: 0x182F3, size: 0x8, addend: 0x0, symName: __ZNSt3__122__compressed_pair_elemIRNS_9allocatorINS_12basic_stringIcNS_11char_traitsIcEENS1_IcEEEEEELi1ELb0EEC2B7v160006IS8_vEEOT_, symObjAddr: 0x3214, symBinAddr: 0x100004CA8, symSize: 0x20 }
  - { offsetInCU: 0x18333, offset: 0x18333, size: 0x8, addend: 0x0, symName: __ZNSt3__122__compressed_pair_elemIRNS_9allocatorINS_12basic_stringIcNS_11char_traitsIcEENS1_IcEEEEEELi1ELb0EEC2B7v160006IS8_vEEOT_, symObjAddr: 0x3214, symBinAddr: 0x100004CA8, symSize: 0x20 }
  - { offsetInCU: 0x1833B, offset: 0x1833B, size: 0x8, addend: 0x0, symName: __ZNSt3__19allocatorINS_12basic_stringIcNS_11char_traitsIcEENS0_IcEEEEE8allocateB7v160006Em, symObjAddr: 0x3234, symBinAddr: 0x100004CC8, symSize: 0x5C }
  - { offsetInCU: 0x1837B, offset: 0x1837B, size: 0x8, addend: 0x0, symName: __ZNSt3__19allocatorINS_12basic_stringIcNS_11char_traitsIcEENS0_IcEEEEE8allocateB7v160006Em, symObjAddr: 0x3234, symBinAddr: 0x100004CC8, symSize: 0x5C }
  - { offsetInCU: 0x18383, offset: 0x18383, size: 0x8, addend: 0x0, symName: __ZSt28__throw_bad_array_new_lengthB7v160006v, symObjAddr: 0x3290, symBinAddr: 0x100004D24, symSize: 0x34 }
  - { offsetInCU: 0x183B4, offset: 0x183B4, size: 0x8, addend: 0x0, symName: __ZNSt3__117__compressed_pairIPNS_12basic_stringIcNS_11char_traitsIcEENS_9allocatorIcEEEERNS4_IS6_EEE6secondB7v160006Ev, symObjAddr: 0x3374, symBinAddr: 0x100004E08, symSize: 0x28 }
  - { offsetInCU: 0x183BC, offset: 0x183BC, size: 0x8, addend: 0x0, symName: __ZNSt3__122__compressed_pair_elemIRNS_9allocatorINS_12basic_stringIcNS_11char_traitsIcEENS1_IcEEEEEELi1ELb0EE5__getB7v160006Ev, symObjAddr: 0x339C, symBinAddr: 0x100004E30, symSize: 0x18 }
  - { offsetInCU: 0x183DF, offset: 0x183DF, size: 0x8, addend: 0x0, symName: __ZNSt3__122__compressed_pair_elemIRNS_9allocatorINS_12basic_stringIcNS_11char_traitsIcEENS1_IcEEEEEELi1ELb0EE5__getB7v160006Ev, symObjAddr: 0x339C, symBinAddr: 0x100004E30, symSize: 0x18 }
  - { offsetInCU: 0x183E7, offset: 0x183E7, size: 0x8, addend: 0x0, symName: __ZNSt3__117__compressed_pairIPNS_12basic_stringIcNS_11char_traitsIcEENS_9allocatorIcEEEERNS4_IS6_EEE5firstB7v160006Ev, symObjAddr: 0x33B4, symBinAddr: 0x100004E48, symSize: 0x24 }
  - { offsetInCU: 0x1840B, offset: 0x1840B, size: 0x8, addend: 0x0, symName: __ZNSt3__117__compressed_pairIPNS_12basic_stringIcNS_11char_traitsIcEENS_9allocatorIcEEEERNS4_IS6_EEE5firstB7v160006Ev, symObjAddr: 0x33B4, symBinAddr: 0x100004E48, symSize: 0x24 }
  - { offsetInCU: 0x18413, offset: 0x18413, size: 0x8, addend: 0x0, symName: __ZNKSt3__16vectorINS_12basic_stringIcNS_11char_traitsIcEENS_9allocatorIcEEEENS4_IS6_EEE17__annotate_deleteB7v160006Ev, symObjAddr: 0x33D8, symBinAddr: 0x100004E6C, symSize: 0xD4 }
  - { offsetInCU: 0x18436, offset: 0x18436, size: 0x8, addend: 0x0, symName: __ZNKSt3__16vectorINS_12basic_stringIcNS_11char_traitsIcEENS_9allocatorIcEEEENS4_IS6_EEE17__annotate_deleteB7v160006Ev, symObjAddr: 0x33D8, symBinAddr: 0x100004E6C, symSize: 0xD4 }
  - { offsetInCU: 0x1843E, offset: 0x1843E, size: 0x8, addend: 0x0, symName: __ZNSt3__142__uninitialized_allocator_move_if_noexceptB7v160006INS_9allocatorINS_12basic_stringIcNS_11char_traitsIcEENS1_IcEEEEEENS_16reverse_iteratorIPS6_EESA_SA_EET2_RT_T0_T1_SB_, symObjAddr: 0x34AC, symBinAddr: 0x100004F40, symSize: 0x12C }
  - { offsetInCU: 0x18461, offset: 0x18461, size: 0x8, addend: 0x0, symName: __ZNSt3__116reverse_iteratorIPNS_12basic_stringIcNS_11char_traitsIcEENS_9allocatorIcEEEEEC1B7v160006ES7_, symObjAddr: 0x35D8, symBinAddr: 0x10000506C, symSize: 0x34 }
  - { offsetInCU: 0x18469, offset: 0x18469, size: 0x8, addend: 0x0, symName: __ZNKSt3__116reverse_iteratorIPNS_12basic_stringIcNS_11char_traitsIcEENS_9allocatorIcEEEEE4baseB7v160006Ev, symObjAddr: 0x360C, symBinAddr: 0x1000050A0, symSize: 0x18 }
  - { offsetInCU: 0x1849E, offset: 0x1849E, size: 0x8, addend: 0x0, symName: __ZNKSt3__116reverse_iteratorIPNS_12basic_stringIcNS_11char_traitsIcEENS_9allocatorIcEEEEE4baseB7v160006Ev, symObjAddr: 0x360C, symBinAddr: 0x1000050A0, symSize: 0x18 }
  - { offsetInCU: 0x184A6, offset: 0x184A6, size: 0x8, addend: 0x0, symName: __ZNSt3__14swapB7v160006IPNS_12basic_stringIcNS_11char_traitsIcEENS_9allocatorIcEEEEEENS_9enable_ifIXaasr21is_move_constructibleIT_EE5valuesr18is_move_assignableIS9_EE5valueEvE4typeERS9_SC_, symObjAddr: 0x3624, symBinAddr: 0x1000050B8, symSize: 0x3C }
  - { offsetInCU: 0x184CA, offset: 0x184CA, size: 0x8, addend: 0x0, symName: __ZNKSt3__16vectorINS_12basic_stringIcNS_11char_traitsIcEENS_9allocatorIcEEEENS4_IS6_EEE14__annotate_newB7v160006Em, symObjAddr: 0x3660, symBinAddr: 0x1000050F4, symSize: 0xC8 }
  - { offsetInCU: 0x184D2, offset: 0x184D2, size: 0x8, addend: 0x0, symName: __ZNSt3__125__debug_db_invalidate_allB7v160006INS_6vectorINS_12basic_stringIcNS_11char_traitsIcEENS_9allocatorIcEEEENS5_IS7_EEEEEEvPT_, symObjAddr: 0x3728, symBinAddr: 0x1000051BC, symSize: 0x10 }
  - { offsetInCU: 0x18504, offset: 0x18504, size: 0x8, addend: 0x0, symName: __ZNKSt3__16vectorINS_12basic_stringIcNS_11char_traitsIcEENS_9allocatorIcEEEENS4_IS6_EEE31__annotate_contiguous_containerB7v160006EPKvSA_SA_SA_, symObjAddr: 0x3738, symBinAddr: 0x1000051CC, symSize: 0x20 }
  - { offsetInCU: 0x1850C, offset: 0x1850C, size: 0x8, addend: 0x0, symName: __ZNKSt3__16vectorINS_12basic_stringIcNS_11char_traitsIcEENS_9allocatorIcEEEENS4_IS6_EEE4dataB7v160006Ev, symObjAddr: 0x3758, symBinAddr: 0x1000051EC, symSize: 0x28 }
  - { offsetInCU: 0x18560, offset: 0x18560, size: 0x8, addend: 0x0, symName: __ZNKSt3__16vectorINS_12basic_stringIcNS_11char_traitsIcEENS_9allocatorIcEEEENS4_IS6_EEE4dataB7v160006Ev, symObjAddr: 0x3758, symBinAddr: 0x1000051EC, symSize: 0x28 }
  - { offsetInCU: 0x18568, offset: 0x18568, size: 0x8, addend: 0x0, symName: __ZNSt3__122__make_exception_guardB7v160006INS_29_AllocatorDestroyRangeReverseINS_9allocatorINS_12basic_stringIcNS_11char_traitsIcEENS2_IcEEEEEENS_16reverse_iteratorIPS7_EEEEEENS_28__exception_guard_exceptionsIT_EESE_, symObjAddr: 0x3780, symBinAddr: 0x100005214, symSize: 0x4C }
  - { offsetInCU: 0x1858B, offset: 0x1858B, size: 0x8, addend: 0x0, symName: __ZNSt3__129_AllocatorDestroyRangeReverseINS_9allocatorINS_12basic_stringIcNS_11char_traitsIcEENS1_IcEEEEEENS_16reverse_iteratorIPS6_EEEC1B7v160006ERS7_RSA_SD_, symObjAddr: 0x37CC, symBinAddr: 0x100005260, symSize: 0x44 }
  - { offsetInCU: 0x18593, offset: 0x18593, size: 0x8, addend: 0x0, symName: __ZNSt3__1neB7v160006IPNS_12basic_stringIcNS_11char_traitsIcEENS_9allocatorIcEEEES7_EEbRKNS_16reverse_iteratorIT_EERKNS8_IT0_EE, symObjAddr: 0x3810, symBinAddr: 0x1000052A4, symSize: 0x48 }
  - { offsetInCU: 0x185E7, offset: 0x185E7, size: 0x8, addend: 0x0, symName: __ZNKSt3__116reverse_iteratorIPNS_12basic_stringIcNS_11char_traitsIcEENS_9allocatorIcEEEEEdeB7v160006Ev, symObjAddr: 0x387C, symBinAddr: 0x100005310, symSize: 0x28 }
  - { offsetInCU: 0x185EF, offset: 0x185EF, size: 0x8, addend: 0x0, symName: __ZNSt3__116reverse_iteratorIPNS_12basic_stringIcNS_11char_traitsIcEENS_9allocatorIcEEEEEppB7v160006Ev, symObjAddr: 0x38A4, symBinAddr: 0x100005338, symSize: 0x20 }
  - { offsetInCU: 0x18621, offset: 0x18621, size: 0x8, addend: 0x0, symName: __ZNSt3__116reverse_iteratorIPNS_12basic_stringIcNS_11char_traitsIcEENS_9allocatorIcEEEEEppB7v160006Ev, symObjAddr: 0x38A4, symBinAddr: 0x100005338, symSize: 0x20 }
  - { offsetInCU: 0x18629, offset: 0x18629, size: 0x8, addend: 0x0, symName: __ZNSt3__128__exception_guard_exceptionsINS_29_AllocatorDestroyRangeReverseINS_9allocatorINS_12basic_stringIcNS_11char_traitsIcEENS2_IcEEEEEENS_16reverse_iteratorIPS7_EEEEE10__completeB7v160006Ev, symObjAddr: 0x38C4, symBinAddr: 0x100005358, symSize: 0x1C }
  - { offsetInCU: 0x1864D, offset: 0x1864D, size: 0x8, addend: 0x0, symName: __ZNSt3__128__exception_guard_exceptionsINS_29_AllocatorDestroyRangeReverseINS_9allocatorINS_12basic_stringIcNS_11char_traitsIcEENS2_IcEEEEEENS_16reverse_iteratorIPS7_EEEEE10__completeB7v160006Ev, symObjAddr: 0x38C4, symBinAddr: 0x100005358, symSize: 0x1C }
  - { offsetInCU: 0x18655, offset: 0x18655, size: 0x8, addend: 0x0, symName: __ZNSt3__128__exception_guard_exceptionsINS_29_AllocatorDestroyRangeReverseINS_9allocatorINS_12basic_stringIcNS_11char_traitsIcEENS2_IcEEEEEENS_16reverse_iteratorIPS7_EEEEED1B7v160006Ev, symObjAddr: 0x38E0, symBinAddr: 0x100005374, symSize: 0x2C }
  - { offsetInCU: 0x18679, offset: 0x18679, size: 0x8, addend: 0x0, symName: __ZNSt3__128__exception_guard_exceptionsINS_29_AllocatorDestroyRangeReverseINS_9allocatorINS_12basic_stringIcNS_11char_traitsIcEENS2_IcEEEEEENS_16reverse_iteratorIPS7_EEEEED1B7v160006Ev, symObjAddr: 0x38E0, symBinAddr: 0x100005374, symSize: 0x2C }
  - { offsetInCU: 0x18681, offset: 0x18681, size: 0x8, addend: 0x0, symName: __ZNSt3__128__exception_guard_exceptionsINS_29_AllocatorDestroyRangeReverseINS_9allocatorINS_12basic_stringIcNS_11char_traitsIcEENS2_IcEEEEEENS_16reverse_iteratorIPS7_EEEEEC1B7v160006ESC_, symObjAddr: 0x390C, symBinAddr: 0x1000053A0, symSize: 0x34 }
  - { offsetInCU: 0x186A8, offset: 0x186A8, size: 0x8, addend: 0x0, symName: __ZNSt3__128__exception_guard_exceptionsINS_29_AllocatorDestroyRangeReverseINS_9allocatorINS_12basic_stringIcNS_11char_traitsIcEENS2_IcEEEEEENS_16reverse_iteratorIPS7_EEEEEC1B7v160006ESC_, symObjAddr: 0x390C, symBinAddr: 0x1000053A0, symSize: 0x34 }
  - { offsetInCU: 0x186B0, offset: 0x186B0, size: 0x8, addend: 0x0, symName: __ZNSt3__128__exception_guard_exceptionsINS_29_AllocatorDestroyRangeReverseINS_9allocatorINS_12basic_stringIcNS_11char_traitsIcEENS2_IcEEEEEENS_16reverse_iteratorIPS7_EEEEEC2B7v160006ESC_, symObjAddr: 0x3940, symBinAddr: 0x1000053D4, symSize: 0x30 }
  - { offsetInCU: 0x186E6, offset: 0x186E6, size: 0x8, addend: 0x0, symName: __ZNSt3__128__exception_guard_exceptionsINS_29_AllocatorDestroyRangeReverseINS_9allocatorINS_12basic_stringIcNS_11char_traitsIcEENS2_IcEEEEEENS_16reverse_iteratorIPS7_EEEEEC2B7v160006ESC_, symObjAddr: 0x3940, symBinAddr: 0x1000053D4, symSize: 0x30 }
  - { offsetInCU: 0x186EE, offset: 0x186EE, size: 0x8, addend: 0x0, symName: __ZNSt3__129_AllocatorDestroyRangeReverseINS_9allocatorINS_12basic_stringIcNS_11char_traitsIcEENS1_IcEEEEEENS_16reverse_iteratorIPS6_EEEC2B7v160006ERS7_RSA_SD_, symObjAddr: 0x3970, symBinAddr: 0x100005404, symSize: 0x38 }
  - { offsetInCU: 0x18725, offset: 0x18725, size: 0x8, addend: 0x0, symName: __ZNSt3__129_AllocatorDestroyRangeReverseINS_9allocatorINS_12basic_stringIcNS_11char_traitsIcEENS1_IcEEEEEENS_16reverse_iteratorIPS6_EEEC2B7v160006ERS7_RSA_SD_, symObjAddr: 0x3970, symBinAddr: 0x100005404, symSize: 0x38 }
  - { offsetInCU: 0x1872D, offset: 0x1872D, size: 0x8, addend: 0x0, symName: __ZNSt3__119__to_address_helperINS_16reverse_iteratorIPNS_12basic_stringIcNS_11char_traitsIcEENS_9allocatorIcEEEEEEvE6__callB7v160006ERKS9_, symObjAddr: 0x39A8, symBinAddr: 0x10000543C, symSize: 0x38 }
  - { offsetInCU: 0x18788, offset: 0x18788, size: 0x8, addend: 0x0, symName: __ZNSt3__119__to_address_helperINS_16reverse_iteratorIPNS_12basic_stringIcNS_11char_traitsIcEENS_9allocatorIcEEEEEEvE6__callB7v160006ERKS9_, symObjAddr: 0x39A8, symBinAddr: 0x10000543C, symSize: 0x38 }
  - { offsetInCU: 0x18790, offset: 0x18790, size: 0x8, addend: 0x0, symName: __ZNKSt3__116reverse_iteratorIPNS_12basic_stringIcNS_11char_traitsIcEENS_9allocatorIcEEEEEptB7v160006Ev, symObjAddr: 0x39E0, symBinAddr: 0x100005474, symSize: 0x2C }
  - { offsetInCU: 0x187AF, offset: 0x187AF, size: 0x8, addend: 0x0, symName: __ZNKSt3__116reverse_iteratorIPNS_12basic_stringIcNS_11char_traitsIcEENS_9allocatorIcEEEEEptB7v160006Ev, symObjAddr: 0x39E0, symBinAddr: 0x100005474, symSize: 0x2C }
  - { offsetInCU: 0x187B7, offset: 0x187B7, size: 0x8, addend: 0x0, symName: __ZNSt3__14prevB7v160006IPNS_12basic_stringIcNS_11char_traitsIcEENS_9allocatorIcEEEEEENS_9enable_ifIXsr25__is_cpp17_input_iteratorIT_EE5valueES9_E4typeES9_NS_15iterator_traitsIS9_E15difference_typeE, symObjAddr: 0x3A0C, symBinAddr: 0x1000054A0, symSize: 0x50 }
  - { offsetInCU: 0x187DA, offset: 0x187DA, size: 0x8, addend: 0x0, symName: __ZNSt3__128__exception_guard_exceptionsINS_29_AllocatorDestroyRangeReverseINS_9allocatorINS_12basic_stringIcNS_11char_traitsIcEENS2_IcEEEEEENS_16reverse_iteratorIPS7_EEEEED2B7v160006Ev, symObjAddr: 0x3AF0, symBinAddr: 0x100005584, symSize: 0x50 }
  - { offsetInCU: 0x187E2, offset: 0x187E2, size: 0x8, addend: 0x0, symName: __ZNKSt3__129_AllocatorDestroyRangeReverseINS_9allocatorINS_12basic_stringIcNS_11char_traitsIcEENS1_IcEEEEEENS_16reverse_iteratorIPS6_EEEclB7v160006Ev, symObjAddr: 0x3B40, symBinAddr: 0x1000055D4, symSize: 0xB4 }
  - { offsetInCU: 0x18809, offset: 0x18809, size: 0x8, addend: 0x0, symName: __ZNKSt3__129_AllocatorDestroyRangeReverseINS_9allocatorINS_12basic_stringIcNS_11char_traitsIcEENS1_IcEEEEEENS_16reverse_iteratorIPS6_EEEclB7v160006Ev, symObjAddr: 0x3B40, symBinAddr: 0x1000055D4, symSize: 0xB4 }
  - { offsetInCU: 0x18811, offset: 0x18811, size: 0x8, addend: 0x0, symName: __ZNSt3__119__allocator_destroyB7v160006INS_9allocatorINS_12basic_stringIcNS_11char_traitsIcEENS1_IcEEEEEENS_16reverse_iteratorINS8_IPS6_EEEESB_EEvRT_T0_T1_, symObjAddr: 0x3BF4, symBinAddr: 0x100005688, symSize: 0x70 }
  - { offsetInCU: 0x18835, offset: 0x18835, size: 0x8, addend: 0x0, symName: __ZNSt3__116reverse_iteratorINS0_IPNS_12basic_stringIcNS_11char_traitsIcEENS_9allocatorIcEEEEEEEC1B7v160006ES8_, symObjAddr: 0x3C64, symBinAddr: 0x1000056F8, symSize: 0x3C }
  - { offsetInCU: 0x1883D, offset: 0x1883D, size: 0x8, addend: 0x0, symName: __ZNSt3__1neB7v160006INS_16reverse_iteratorIPNS_12basic_stringIcNS_11char_traitsIcEENS_9allocatorIcEEEEEES9_EEbRKNS1_IT_EERKNS1_IT0_EE, symObjAddr: 0x3CA0, symBinAddr: 0x100005734, symSize: 0x60 }
  - { offsetInCU: 0x18872, offset: 0x18872, size: 0x8, addend: 0x0, symName: __ZNSt3__116allocator_traitsINS_9allocatorINS_12basic_stringIcNS_11char_traitsIcEENS1_IcEEEEEEE7destroyB7v160006IS6_vvEEvRS7_PT_, symObjAddr: 0x3D00, symBinAddr: 0x100005794, symSize: 0x28 }
  - { offsetInCU: 0x1887A, offset: 0x1887A, size: 0x8, addend: 0x0, symName: __ZNSt3__112__to_addressB7v160006INS_16reverse_iteratorINS1_IPNS_12basic_stringIcNS_11char_traitsIcEENS_9allocatorIcEEEEEEEEvEENS_5decayIDTclsr19__to_address_helperIT_EE6__callclsr3stdE7declvalIRKSC_EEEEE4typeESE_, symObjAddr: 0x3D28, symBinAddr: 0x1000057BC, symSize: 0x24 }
  - { offsetInCU: 0x188B1, offset: 0x188B1, size: 0x8, addend: 0x0, symName: __ZNSt3__116reverse_iteratorINS0_IPNS_12basic_stringIcNS_11char_traitsIcEENS_9allocatorIcEEEEEEEppB7v160006Ev, symObjAddr: 0x3D4C, symBinAddr: 0x1000057E0, symSize: 0x30 }
  - { offsetInCU: 0x188B9, offset: 0x188B9, size: 0x8, addend: 0x0, symName: __ZNKSt3__116reverse_iteratorINS0_IPNS_12basic_stringIcNS_11char_traitsIcEENS_9allocatorIcEEEEEEE4baseB7v160006Ev, symObjAddr: 0x3D7C, symBinAddr: 0x100005810, symSize: 0x24 }
  - { offsetInCU: 0x188DC, offset: 0x188DC, size: 0x8, addend: 0x0, symName: __ZNKSt3__116reverse_iteratorINS0_IPNS_12basic_stringIcNS_11char_traitsIcEENS_9allocatorIcEEEEEEE4baseB7v160006Ev, symObjAddr: 0x3D7C, symBinAddr: 0x100005810, symSize: 0x24 }
  - { offsetInCU: 0x188E4, offset: 0x188E4, size: 0x8, addend: 0x0, symName: __ZNSt3__110destroy_atB7v160006INS_12basic_stringIcNS_11char_traitsIcEENS_9allocatorIcEEEELi0EEEvPT_, symObjAddr: 0x3DA0, symBinAddr: 0x100005834, symSize: 0x24 }
  - { offsetInCU: 0x1890E, offset: 0x1890E, size: 0x8, addend: 0x0, symName: __ZNSt3__119__to_address_helperINS_16reverse_iteratorINS1_IPNS_12basic_stringIcNS_11char_traitsIcEENS_9allocatorIcEEEEEEEEvE6__callB7v160006ERKSA_, symObjAddr: 0x3DE8, symBinAddr: 0x10000587C, symSize: 0x38 }
  - { offsetInCU: 0x18916, offset: 0x18916, size: 0x8, addend: 0x0, symName: __ZNKSt3__116reverse_iteratorINS0_IPNS_12basic_stringIcNS_11char_traitsIcEENS_9allocatorIcEEEEEEEptB7v160006Ev, symObjAddr: 0x3E20, symBinAddr: 0x1000058B4, symSize: 0x4C }
  - { offsetInCU: 0x18935, offset: 0x18935, size: 0x8, addend: 0x0, symName: __ZNKSt3__116reverse_iteratorINS0_IPNS_12basic_stringIcNS_11char_traitsIcEENS_9allocatorIcEEEEEEEptB7v160006Ev, symObjAddr: 0x3E20, symBinAddr: 0x1000058B4, symSize: 0x4C }
  - { offsetInCU: 0x1893D, offset: 0x1893D, size: 0x8, addend: 0x0, symName: __ZNSt3__14prevB7v160006INS_16reverse_iteratorIPNS_12basic_stringIcNS_11char_traitsIcEENS_9allocatorIcEEEEEEEENS_9enable_ifIXsr25__is_cpp17_input_iteratorIT_EE5valueESB_E4typeESB_NS_15iterator_traitsISB_E15difference_typeE, symObjAddr: 0x3E6C, symBinAddr: 0x100005900, symSize: 0x60 }
  - { offsetInCU: 0x18960, offset: 0x18960, size: 0x8, addend: 0x0, symName: __ZNSt3__116reverse_iteratorIPNS_12basic_stringIcNS_11char_traitsIcEENS_9allocatorIcEEEEEpLB7v160006El, symObjAddr: 0x3F48, symBinAddr: 0x1000059DC, symSize: 0x30 }
  - { offsetInCU: 0x18968, offset: 0x18968, size: 0x8, addend: 0x0, symName: __ZNSt3__116reverse_iteratorIPNS_12basic_stringIcNS_11char_traitsIcEENS_9allocatorIcEEEEEmmB7v160006Ev, symObjAddr: 0x3F78, symBinAddr: 0x100005A0C, symSize: 0x20 }
  - { offsetInCU: 0x1899A, offset: 0x1899A, size: 0x8, addend: 0x0, symName: __ZNSt3__116reverse_iteratorIPNS_12basic_stringIcNS_11char_traitsIcEENS_9allocatorIcEEEEEmmB7v160006Ev, symObjAddr: 0x3F78, symBinAddr: 0x100005A0C, symSize: 0x20 }
  - { offsetInCU: 0x189A2, offset: 0x189A2, size: 0x8, addend: 0x0, symName: __ZNSt3__116reverse_iteratorINS0_IPNS_12basic_stringIcNS_11char_traitsIcEENS_9allocatorIcEEEEEEEC2B7v160006ES8_, symObjAddr: 0x3F98, symBinAddr: 0x100005A2C, symSize: 0x2C }
  - { offsetInCU: 0x189C6, offset: 0x189C6, size: 0x8, addend: 0x0, symName: __ZNSt3__116reverse_iteratorINS0_IPNS_12basic_stringIcNS_11char_traitsIcEENS_9allocatorIcEEEEEEEC2B7v160006ES8_, symObjAddr: 0x3F98, symBinAddr: 0x100005A2C, symSize: 0x2C }
  - { offsetInCU: 0x189CE, offset: 0x189CE, size: 0x8, addend: 0x0, symName: __ZNSt3__116reverse_iteratorIPNS_12basic_stringIcNS_11char_traitsIcEENS_9allocatorIcEEEEEC2B7v160006ES7_, symObjAddr: 0x3FC4, symBinAddr: 0x100005A58, symSize: 0x28 }
  - { offsetInCU: 0x18A04, offset: 0x18A04, size: 0x8, addend: 0x0, symName: __ZNSt3__116reverse_iteratorIPNS_12basic_stringIcNS_11char_traitsIcEENS_9allocatorIcEEEEEC2B7v160006ES7_, symObjAddr: 0x3FC4, symBinAddr: 0x100005A58, symSize: 0x28 }
  - { offsetInCU: 0x18A0C, offset: 0x18A0C, size: 0x8, addend: 0x0, symName: __ZNSt3__114__split_bufferINS_12basic_stringIcNS_11char_traitsIcEENS_9allocatorIcEEEERNS4_IS6_EEED2Ev, symObjAddr: 0x3FEC, symBinAddr: 0x100005A80, symSize: 0x8C }
  - { offsetInCU: 0x18A42, offset: 0x18A42, size: 0x8, addend: 0x0, symName: __ZNSt3__114__split_bufferINS_12basic_stringIcNS_11char_traitsIcEENS_9allocatorIcEEEERNS4_IS6_EEED2Ev, symObjAddr: 0x3FEC, symBinAddr: 0x100005A80, symSize: 0x8C }
  - { offsetInCU: 0x18A4A, offset: 0x18A4A, size: 0x8, addend: 0x0, symName: __ZNSt3__114__split_bufferINS_12basic_stringIcNS_11char_traitsIcEENS_9allocatorIcEEEERNS4_IS6_EEE5clearB7v160006Ev, symObjAddr: 0x4078, symBinAddr: 0x100005B0C, symSize: 0x28 }
  - { offsetInCU: 0x18A73, offset: 0x18A73, size: 0x8, addend: 0x0, symName: __ZNSt3__114__split_bufferINS_12basic_stringIcNS_11char_traitsIcEENS_9allocatorIcEEEERNS4_IS6_EEE5clearB7v160006Ev, symObjAddr: 0x4078, symBinAddr: 0x100005B0C, symSize: 0x28 }
  - { offsetInCU: 0x18A7B, offset: 0x18A7B, size: 0x8, addend: 0x0, symName: __ZNSt3__116allocator_traitsINS_9allocatorINS_12basic_stringIcNS_11char_traitsIcEENS1_IcEEEEEEE10deallocateB7v160006ERS7_PS6_m, symObjAddr: 0x40A0, symBinAddr: 0x100005B34, symSize: 0x34 }
  - { offsetInCU: 0x18A9E, offset: 0x18A9E, size: 0x8, addend: 0x0, symName: __ZNSt3__116allocator_traitsINS_9allocatorINS_12basic_stringIcNS_11char_traitsIcEENS1_IcEEEEEEE10deallocateB7v160006ERS7_PS6_m, symObjAddr: 0x40A0, symBinAddr: 0x100005B34, symSize: 0x34 }
  - { offsetInCU: 0x18AA6, offset: 0x18AA6, size: 0x8, addend: 0x0, symName: __ZNKSt3__114__split_bufferINS_12basic_stringIcNS_11char_traitsIcEENS_9allocatorIcEEEERNS4_IS6_EEE8capacityB7v160006Ev, symObjAddr: 0x40D4, symBinAddr: 0x100005B68, symSize: 0x40 }
  - { offsetInCU: 0x18AE4, offset: 0x18AE4, size: 0x8, addend: 0x0, symName: __ZNKSt3__114__split_bufferINS_12basic_stringIcNS_11char_traitsIcEENS_9allocatorIcEEEERNS4_IS6_EEE8capacityB7v160006Ev, symObjAddr: 0x40D4, symBinAddr: 0x100005B68, symSize: 0x40 }
  - { offsetInCU: 0x18AEC, offset: 0x18AEC, size: 0x8, addend: 0x0, symName: __ZNSt3__114__split_bufferINS_12basic_stringIcNS_11char_traitsIcEENS_9allocatorIcEEEERNS4_IS6_EEE17__destruct_at_endB7v160006EPS6_, symObjAddr: 0x4114, symBinAddr: 0x100005BA8, symSize: 0x2C }
  - { offsetInCU: 0x18B0F, offset: 0x18B0F, size: 0x8, addend: 0x0, symName: __ZNSt3__114__split_bufferINS_12basic_stringIcNS_11char_traitsIcEENS_9allocatorIcEEEERNS4_IS6_EEE17__destruct_at_endB7v160006EPS6_, symObjAddr: 0x4114, symBinAddr: 0x100005BA8, symSize: 0x2C }
  - { offsetInCU: 0x18B17, offset: 0x18B17, size: 0x8, addend: 0x0, symName: __ZNSt3__114__split_bufferINS_12basic_stringIcNS_11char_traitsIcEENS_9allocatorIcEEEERNS4_IS6_EEE17__destruct_at_endB7v160006EPS6_NS_17integral_constantIbLb0EEE, symObjAddr: 0x4140, symBinAddr: 0x100005BD4, symSize: 0x80 }
  - { offsetInCU: 0x18B48, offset: 0x18B48, size: 0x8, addend: 0x0, symName: __ZNSt3__114__split_bufferINS_12basic_stringIcNS_11char_traitsIcEENS_9allocatorIcEEEERNS4_IS6_EEE17__destruct_at_endB7v160006EPS6_NS_17integral_constantIbLb0EEE, symObjAddr: 0x4140, symBinAddr: 0x100005BD4, symSize: 0x80 }
  - { offsetInCU: 0x18B50, offset: 0x18B50, size: 0x8, addend: 0x0, symName: __ZNSt3__19allocatorINS_12basic_stringIcNS_11char_traitsIcEENS0_IcEEEEE10deallocateB7v160006EPS5_m, symObjAddr: 0x41C0, symBinAddr: 0x100005C54, symSize: 0x44 }
  - { offsetInCU: 0x18B8D, offset: 0x18B8D, size: 0x8, addend: 0x0, symName: __ZNSt3__19allocatorINS_12basic_stringIcNS_11char_traitsIcEENS0_IcEEEEE10deallocateB7v160006EPS5_m, symObjAddr: 0x41C0, symBinAddr: 0x100005C54, symSize: 0x44 }
  - { offsetInCU: 0x18B95, offset: 0x18B95, size: 0x8, addend: 0x0, symName: __ZNKSt3__114__split_bufferINS_12basic_stringIcNS_11char_traitsIcEENS_9allocatorIcEEEERNS4_IS6_EEE9__end_capB7v160006Ev, symObjAddr: 0x4204, symBinAddr: 0x100005C98, symSize: 0x28 }
  - { offsetInCU: 0x18BD4, offset: 0x18BD4, size: 0x8, addend: 0x0, symName: __ZNKSt3__114__split_bufferINS_12basic_stringIcNS_11char_traitsIcEENS_9allocatorIcEEEERNS4_IS6_EEE9__end_capB7v160006Ev, symObjAddr: 0x4204, symBinAddr: 0x100005C98, symSize: 0x28 }
  - { offsetInCU: 0x18BDC, offset: 0x18BDC, size: 0x8, addend: 0x0, symName: __ZNKSt3__117__compressed_pairIPNS_12basic_stringIcNS_11char_traitsIcEENS_9allocatorIcEEEERNS4_IS6_EEE5firstB7v160006Ev, symObjAddr: 0x422C, symBinAddr: 0x100005CC0, symSize: 0x24 }
  - { offsetInCU: 0x18BFF, offset: 0x18BFF, size: 0x8, addend: 0x0, symName: __ZNKSt3__117__compressed_pairIPNS_12basic_stringIcNS_11char_traitsIcEENS_9allocatorIcEEEERNS4_IS6_EEE5firstB7v160006Ev, symObjAddr: 0x422C, symBinAddr: 0x100005CC0, symSize: 0x24 }
  - { offsetInCU: 0x18C07, offset: 0x18C07, size: 0x8, addend: 0x0, symName: __ZNSt3__112basic_stringIcNS_11char_traitsIcEENS_9allocatorIcEEE6appendB7v160006ERKS5_, symObjAddr: 0x4250, symBinAddr: 0x100005CE4, symSize: 0x4C }
  - { offsetInCU: 0x18C2A, offset: 0x18C2A, size: 0x8, addend: 0x0, symName: __ZNSt3__112basic_stringIcNS_11char_traitsIcEENS_9allocatorIcEEE6appendB7v160006ERKS5_, symObjAddr: 0x4250, symBinAddr: 0x100005CE4, symSize: 0x4C }
  - { offsetInCU: 0x18C32, offset: 0x18C32, size: 0x8, addend: 0x0, symName: __ZNSt3__16vectorINS_12basic_stringIcNS_11char_traitsIcEENS_9allocatorIcEEEENS4_IS6_EEE17__destruct_at_endB7v160006EPS6_, symObjAddr: 0x429C, symBinAddr: 0x100005D30, symSize: 0x60 }
  - { offsetInCU: 0x18C64, offset: 0x18C64, size: 0x8, addend: 0x0, symName: __ZNSt3__16vectorINS_12basic_stringIcNS_11char_traitsIcEENS_9allocatorIcEEEENS4_IS6_EEE17__destruct_at_endB7v160006EPS6_, symObjAddr: 0x429C, symBinAddr: 0x100005D30, symSize: 0x60 }
  - { offsetInCU: 0x18C6C, offset: 0x18C6C, size: 0x8, addend: 0x0, symName: __ZNSt3__16vectorINS_12basic_stringIcNS_11char_traitsIcEENS_9allocatorIcEEEENS4_IS6_EEE27__invalidate_iterators_pastB7v160006EPS6_, symObjAddr: 0x42FC, symBinAddr: 0x100005D90, symSize: 0x14 }
  - { offsetInCU: 0x18CAD, offset: 0x18CAD, size: 0x8, addend: 0x0, symName: __ZNSt3__16vectorINS_12basic_stringIcNS_11char_traitsIcEENS_9allocatorIcEEEENS4_IS6_EEE27__invalidate_iterators_pastB7v160006EPS6_, symObjAddr: 0x42FC, symBinAddr: 0x100005D90, symSize: 0x14 }
  - { offsetInCU: 0x18CB5, offset: 0x18CB5, size: 0x8, addend: 0x0, symName: __ZNSt3__16vectorINS_12basic_stringIcNS_11char_traitsIcEENS_9allocatorIcEEEENS4_IS6_EEE22__base_destruct_at_endB7v160006EPS6_, symObjAddr: 0x4310, symBinAddr: 0x100005DA4, symSize: 0x8C }
  - { offsetInCU: 0x18CEA, offset: 0x18CEA, size: 0x8, addend: 0x0, symName: __ZNSt3__16vectorINS_12basic_stringIcNS_11char_traitsIcEENS_9allocatorIcEEEENS4_IS6_EEE22__base_destruct_at_endB7v160006EPS6_, symObjAddr: 0x4310, symBinAddr: 0x100005DA4, symSize: 0x8C }
  - { offsetInCU: 0x18CF2, offset: 0x18CF2, size: 0x8, addend: 0x0, symName: __ZNKSt3__16vectorINS_12basic_stringIcNS_11char_traitsIcEENS_9allocatorIcEEEENS4_IS6_EEE17__annotate_shrinkB7v160006Em, symObjAddr: 0x439C, symBinAddr: 0x100005E30, symSize: 0xD0 }
  - { offsetInCU: 0x18D33, offset: 0x18D33, size: 0x8, addend: 0x0, symName: __ZNKSt3__16vectorINS_12basic_stringIcNS_11char_traitsIcEENS_9allocatorIcEEEENS4_IS6_EEE17__annotate_shrinkB7v160006Em, symObjAddr: 0x439C, symBinAddr: 0x100005E30, symSize: 0xD0 }
  - { offsetInCU: 0x18D3B, offset: 0x18D3B, size: 0x8, addend: 0x0, symName: __ZNSt3__16vectorINS_5stackIcNS_5dequeIcNS_9allocatorIcEEEEEENS3_IS6_EEEC2B7v160006Ev, symObjAddr: 0x446C, symBinAddr: 0x100005F00, symSize: 0x58 }
  - { offsetInCU: 0x18D6D, offset: 0x18D6D, size: 0x8, addend: 0x0, symName: __ZNSt3__16vectorINS_5stackIcNS_5dequeIcNS_9allocatorIcEEEEEENS3_IS6_EEEC2B7v160006Ev, symObjAddr: 0x446C, symBinAddr: 0x100005F00, symSize: 0x58 }
  - { offsetInCU: 0x18D75, offset: 0x18D75, size: 0x8, addend: 0x0, symName: __ZNSt3__117__compressed_pairIPNS_5stackIcNS_5dequeIcNS_9allocatorIcEEEEEENS3_IS6_EEEC1B7v160006IDnNS_18__default_init_tagEEEOT_OT0_, symObjAddr: 0x44C4, symBinAddr: 0x100005F58, symSize: 0x3C }
  - { offsetInCU: 0x18DA2, offset: 0x18DA2, size: 0x8, addend: 0x0, symName: __ZNSt3__117__compressed_pairIPNS_5stackIcNS_5dequeIcNS_9allocatorIcEEEEEENS3_IS6_EEEC1B7v160006IDnNS_18__default_init_tagEEEOT_OT0_, symObjAddr: 0x44C4, symBinAddr: 0x100005F58, symSize: 0x3C }
  - { offsetInCU: 0x18DAA, offset: 0x18DAA, size: 0x8, addend: 0x0, symName: __ZNSt3__119__debug_db_insert_cB7v160006INS_6vectorINS_5stackIcNS_5dequeIcNS_9allocatorIcEEEEEENS4_IS7_EEEEEEvPT_, symObjAddr: 0x4500, symBinAddr: 0x100005F94, symSize: 0x10 }
  - { offsetInCU: 0x18DFF, offset: 0x18DFF, size: 0x8, addend: 0x0, symName: __ZNSt3__117__compressed_pairIPNS_5stackIcNS_5dequeIcNS_9allocatorIcEEEEEENS3_IS6_EEEC2B7v160006IDnNS_18__default_init_tagEEEOT_OT0_, symObjAddr: 0x4510, symBinAddr: 0x100005FA4, symSize: 0x40 }
  - { offsetInCU: 0x18E07, offset: 0x18E07, size: 0x8, addend: 0x0, symName: __ZNSt3__122__compressed_pair_elemIPNS_5stackIcNS_5dequeIcNS_9allocatorIcEEEEEELi0ELb0EEC2B7v160006IDnvEEOT_, symObjAddr: 0x4550, symBinAddr: 0x100005FE4, symSize: 0x1C }
  - { offsetInCU: 0x18E5C, offset: 0x18E5C, size: 0x8, addend: 0x0, symName: __ZNSt3__122__compressed_pair_elemIPNS_5stackIcNS_5dequeIcNS_9allocatorIcEEEEEELi0ELb0EEC2B7v160006IDnvEEOT_, symObjAddr: 0x4550, symBinAddr: 0x100005FE4, symSize: 0x1C }
  - { offsetInCU: 0x18E64, offset: 0x18E64, size: 0x8, addend: 0x0, symName: __ZNSt3__122__compressed_pair_elemINS_9allocatorINS_5stackIcNS_5dequeIcNS1_IcEEEEEEEELi1ELb1EEC2B7v160006ENS_18__default_init_tagE, symObjAddr: 0x456C, symBinAddr: 0x100006000, symSize: 0x2C }
  - { offsetInCU: 0x18EA4, offset: 0x18EA4, size: 0x8, addend: 0x0, symName: __ZNSt3__122__compressed_pair_elemINS_9allocatorINS_5stackIcNS_5dequeIcNS1_IcEEEEEEEELi1ELb1EEC2B7v160006ENS_18__default_init_tagE, symObjAddr: 0x456C, symBinAddr: 0x100006000, symSize: 0x2C }
  - { offsetInCU: 0x18EAC, offset: 0x18EAC, size: 0x8, addend: 0x0, symName: __ZNSt3__19allocatorINS_5stackIcNS_5dequeIcNS0_IcEEEEEEEC2B7v160006Ev, symObjAddr: 0x4598, symBinAddr: 0x10000602C, symSize: 0x2C }
  - { offsetInCU: 0x18EDD, offset: 0x18EDD, size: 0x8, addend: 0x0, symName: __ZNSt3__19allocatorINS_5stackIcNS_5dequeIcNS0_IcEEEEEEEC2B7v160006Ev, symObjAddr: 0x4598, symBinAddr: 0x10000602C, symSize: 0x2C }
  - { offsetInCU: 0x18EE5, offset: 0x18EE5, size: 0x8, addend: 0x0, symName: __ZNSt3__116__non_trivial_ifILb1ENS_9allocatorINS_5stackIcNS_5dequeIcNS1_IcEEEEEEEEEC2B7v160006Ev, symObjAddr: 0x45C4, symBinAddr: 0x100006058, symSize: 0x14 }
  - { offsetInCU: 0x18F0C, offset: 0x18F0C, size: 0x8, addend: 0x0, symName: __ZNSt3__116__non_trivial_ifILb1ENS_9allocatorINS_5stackIcNS_5dequeIcNS1_IcEEEEEEEEEC2B7v160006Ev, symObjAddr: 0x45C4, symBinAddr: 0x100006058, symSize: 0x14 }
  - { offsetInCU: 0x18F14, offset: 0x18F14, size: 0x8, addend: 0x0, symName: __ZNSt3__16vectorINS_5stackIcNS_5dequeIcNS_9allocatorIcEEEEEENS3_IS6_EEE9__end_capB7v160006Ev, symObjAddr: 0x45D8, symBinAddr: 0x10000606C, symSize: 0x28 }
  - { offsetInCU: 0x18F3C, offset: 0x18F3C, size: 0x8, addend: 0x0, symName: __ZNSt3__16vectorINS_5stackIcNS_5dequeIcNS_9allocatorIcEEEEEENS3_IS6_EEE9__end_capB7v160006Ev, symObjAddr: 0x45D8, symBinAddr: 0x10000606C, symSize: 0x28 }
  - { offsetInCU: 0x18F44, offset: 0x18F44, size: 0x8, addend: 0x0, symName: __ZNSt3__16vectorINS_5stackIcNS_5dequeIcNS_9allocatorIcEEEEEENS3_IS6_EEE22__construct_one_at_endB7v160006IJRKS6_EEEvDpOT_, symObjAddr: 0x4600, symBinAddr: 0x100006094, symSize: 0x90 }
  - { offsetInCU: 0x18F67, offset: 0x18F67, size: 0x8, addend: 0x0, symName: __ZNSt3__16vectorINS_5stackIcNS_5dequeIcNS_9allocatorIcEEEEEENS3_IS6_EEE22__construct_one_at_endB7v160006IJRKS6_EEEvDpOT_, symObjAddr: 0x4600, symBinAddr: 0x100006094, symSize: 0x90 }
  - { offsetInCU: 0x18F6F, offset: 0x18F6F, size: 0x8, addend: 0x0, symName: __ZNSt3__16vectorINS_5stackIcNS_5dequeIcNS_9allocatorIcEEEEEENS3_IS6_EEE21__push_back_slow_pathIRKS6_EEvOT_, symObjAddr: 0x4690, symBinAddr: 0x100006124, symSize: 0xD8 }
  - { offsetInCU: 0x18FBB, offset: 0x18FBB, size: 0x8, addend: 0x0, symName: __ZNSt3__16vectorINS_5stackIcNS_5dequeIcNS_9allocatorIcEEEEEENS3_IS6_EEE21__push_back_slow_pathIRKS6_EEvOT_, symObjAddr: 0x4690, symBinAddr: 0x100006124, symSize: 0xD8 }
  - { offsetInCU: 0x18FC3, offset: 0x18FC3, size: 0x8, addend: 0x0, symName: __ZNSt3__117__compressed_pairIPNS_5stackIcNS_5dequeIcNS_9allocatorIcEEEEEENS3_IS6_EEE5firstB7v160006Ev, symObjAddr: 0x4768, symBinAddr: 0x1000061FC, symSize: 0x24 }
  - { offsetInCU: 0x1901E, offset: 0x1901E, size: 0x8, addend: 0x0, symName: __ZNSt3__117__compressed_pairIPNS_5stackIcNS_5dequeIcNS_9allocatorIcEEEEEENS3_IS6_EEE5firstB7v160006Ev, symObjAddr: 0x4768, symBinAddr: 0x1000061FC, symSize: 0x24 }
  - { offsetInCU: 0x19026, offset: 0x19026, size: 0x8, addend: 0x0, symName: __ZNSt3__122__compressed_pair_elemIPNS_5stackIcNS_5dequeIcNS_9allocatorIcEEEEEELi0ELb0EE5__getB7v160006Ev, symObjAddr: 0x478C, symBinAddr: 0x100006220, symSize: 0x14 }
  - { offsetInCU: 0x19049, offset: 0x19049, size: 0x8, addend: 0x0, symName: __ZNSt3__122__compressed_pair_elemIPNS_5stackIcNS_5dequeIcNS_9allocatorIcEEEEEELi0ELb0EE5__getB7v160006Ev, symObjAddr: 0x478C, symBinAddr: 0x100006220, symSize: 0x14 }
  - { offsetInCU: 0x19051, offset: 0x19051, size: 0x8, addend: 0x0, symName: __ZNSt3__16vectorINS_5stackIcNS_5dequeIcNS_9allocatorIcEEEEEENS3_IS6_EEE21_ConstructTransactionC1B7v160006ERS8_m, symObjAddr: 0x47A0, symBinAddr: 0x100006234, symSize: 0x3C }
  - { offsetInCU: 0x19091, offset: 0x19091, size: 0x8, addend: 0x0, symName: __ZNSt3__16vectorINS_5stackIcNS_5dequeIcNS_9allocatorIcEEEEEENS3_IS6_EEE21_ConstructTransactionC1B7v160006ERS8_m, symObjAddr: 0x47A0, symBinAddr: 0x100006234, symSize: 0x3C }
  - { offsetInCU: 0x19099, offset: 0x19099, size: 0x8, addend: 0x0, symName: __ZNSt3__116allocator_traitsINS_9allocatorINS_5stackIcNS_5dequeIcNS1_IcEEEEEEEEE9constructB7v160006IS6_JRKS6_EvvEEvRS7_PT_DpOT0_, symObjAddr: 0x47DC, symBinAddr: 0x100006270, symSize: 0x30 }
  - { offsetInCU: 0x190DE, offset: 0x190DE, size: 0x8, addend: 0x0, symName: __ZNSt3__116allocator_traitsINS_9allocatorINS_5stackIcNS_5dequeIcNS1_IcEEEEEEEEE9constructB7v160006IS6_JRKS6_EvvEEvRS7_PT_DpOT0_, symObjAddr: 0x47DC, symBinAddr: 0x100006270, symSize: 0x30 }
  - { offsetInCU: 0x190E6, offset: 0x190E6, size: 0x8, addend: 0x0, symName: __ZNSt3__16vectorINS_5stackIcNS_5dequeIcNS_9allocatorIcEEEEEENS3_IS6_EEE7__allocB7v160006Ev, symObjAddr: 0x480C, symBinAddr: 0x1000062A0, symSize: 0x28 }
  - { offsetInCU: 0x19137, offset: 0x19137, size: 0x8, addend: 0x0, symName: __ZNSt3__16vectorINS_5stackIcNS_5dequeIcNS_9allocatorIcEEEEEENS3_IS6_EEE7__allocB7v160006Ev, symObjAddr: 0x480C, symBinAddr: 0x1000062A0, symSize: 0x28 }
  - { offsetInCU: 0x1913F, offset: 0x1913F, size: 0x8, addend: 0x0, symName: __ZNSt3__112__to_addressB7v160006INS_5stackIcNS_5dequeIcNS_9allocatorIcEEEEEEEEPT_S8_, symObjAddr: 0x4834, symBinAddr: 0x1000062C8, symSize: 0x14 }
  - { offsetInCU: 0x19162, offset: 0x19162, size: 0x8, addend: 0x0, symName: __ZNSt3__16vectorINS_5stackIcNS_5dequeIcNS_9allocatorIcEEEEEENS3_IS6_EEE21_ConstructTransactionD1B7v160006Ev, symObjAddr: 0x4848, symBinAddr: 0x1000062DC, symSize: 0x2C }
  - { offsetInCU: 0x1916A, offset: 0x1916A, size: 0x8, addend: 0x0, symName: __ZNSt3__16vectorINS_5stackIcNS_5dequeIcNS_9allocatorIcEEEEEENS3_IS6_EEE21_ConstructTransactionC2B7v160006ERS8_m, symObjAddr: 0x4874, symBinAddr: 0x100006308, symSize: 0x4C }
  - { offsetInCU: 0x19191, offset: 0x19191, size: 0x8, addend: 0x0, symName: __ZNSt3__16vectorINS_5stackIcNS_5dequeIcNS_9allocatorIcEEEEEENS3_IS6_EEE21_ConstructTransactionC2B7v160006ERS8_m, symObjAddr: 0x4874, symBinAddr: 0x100006308, symSize: 0x4C }
  - { offsetInCU: 0x19199, offset: 0x19199, size: 0x8, addend: 0x0, symName: __ZNSt3__112construct_atB7v160006INS_5stackIcNS_5dequeIcNS_9allocatorIcEEEEEEJRKS6_EPS6_EEPT_SB_DpOT0_, symObjAddr: 0x48C0, symBinAddr: 0x100006354, symSize: 0x3C }
  - { offsetInCU: 0x191DF, offset: 0x191DF, size: 0x8, addend: 0x0, symName: __ZNSt3__117__compressed_pairIPNS_5stackIcNS_5dequeIcNS_9allocatorIcEEEEEENS3_IS6_EEE6secondB7v160006Ev, symObjAddr: 0x48FC, symBinAddr: 0x100006390, symSize: 0x24 }
  - { offsetInCU: 0x191E7, offset: 0x191E7, size: 0x8, addend: 0x0, symName: __ZNSt3__122__compressed_pair_elemINS_9allocatorINS_5stackIcNS_5dequeIcNS1_IcEEEEEEEELi1ELb1EE5__getB7v160006Ev, symObjAddr: 0x4920, symBinAddr: 0x1000063B4, symSize: 0x14 }
  - { offsetInCU: 0x1920A, offset: 0x1920A, size: 0x8, addend: 0x0, symName: __ZNSt3__122__compressed_pair_elemINS_9allocatorINS_5stackIcNS_5dequeIcNS1_IcEEEEEEEELi1ELb1EE5__getB7v160006Ev, symObjAddr: 0x4920, symBinAddr: 0x1000063B4, symSize: 0x14 }
  - { offsetInCU: 0x19212, offset: 0x19212, size: 0x8, addend: 0x0, symName: __ZNSt3__16vectorINS_5stackIcNS_5dequeIcNS_9allocatorIcEEEEEENS3_IS6_EEE21_ConstructTransactionD2B7v160006Ev, symObjAddr: 0x4934, symBinAddr: 0x1000063C8, symSize: 0x20 }
  - { offsetInCU: 0x19236, offset: 0x19236, size: 0x8, addend: 0x0, symName: __ZNSt3__16vectorINS_5stackIcNS_5dequeIcNS_9allocatorIcEEEEEENS3_IS6_EEE21_ConstructTransactionD2B7v160006Ev, symObjAddr: 0x4934, symBinAddr: 0x1000063C8, symSize: 0x20 }
  - { offsetInCU: 0x1923E, offset: 0x1923E, size: 0x8, addend: 0x0, symName: __ZNKSt3__16vectorINS_5stackIcNS_5dequeIcNS_9allocatorIcEEEEEENS3_IS6_EEE11__recommendB7v160006Em, symObjAddr: 0x4954, symBinAddr: 0x1000063E8, symSize: 0xB4 }
  - { offsetInCU: 0x19266, offset: 0x19266, size: 0x8, addend: 0x0, symName: __ZNKSt3__16vectorINS_5stackIcNS_5dequeIcNS_9allocatorIcEEEEEENS3_IS6_EEE11__recommendB7v160006Em, symObjAddr: 0x4954, symBinAddr: 0x1000063E8, symSize: 0xB4 }
  - { offsetInCU: 0x1926E, offset: 0x1926E, size: 0x8, addend: 0x0, symName: __ZNKSt3__16vectorINS_5stackIcNS_5dequeIcNS_9allocatorIcEEEEEENS3_IS6_EEE4sizeB7v160006Ev, symObjAddr: 0x4A08, symBinAddr: 0x10000649C, symSize: 0x28 }
  - { offsetInCU: 0x192C0, offset: 0x192C0, size: 0x8, addend: 0x0, symName: __ZNKSt3__16vectorINS_5stackIcNS_5dequeIcNS_9allocatorIcEEEEEENS3_IS6_EEE4sizeB7v160006Ev, symObjAddr: 0x4A08, symBinAddr: 0x10000649C, symSize: 0x28 }
  - { offsetInCU: 0x192C8, offset: 0x192C8, size: 0x8, addend: 0x0, symName: __ZNSt3__114__split_bufferINS_5stackIcNS_5dequeIcNS_9allocatorIcEEEEEERNS3_IS6_EEEC1EmmS8_, symObjAddr: 0x4A30, symBinAddr: 0x1000064C4, symSize: 0x44 }
  - { offsetInCU: 0x192EC, offset: 0x192EC, size: 0x8, addend: 0x0, symName: __ZNSt3__114__split_bufferINS_5stackIcNS_5dequeIcNS_9allocatorIcEEEEEERNS3_IS6_EEEC1EmmS8_, symObjAddr: 0x4A30, symBinAddr: 0x1000064C4, symSize: 0x44 }
  - { offsetInCU: 0x192F4, offset: 0x192F4, size: 0x8, addend: 0x0, symName: __ZNSt3__16vectorINS_5stackIcNS_5dequeIcNS_9allocatorIcEEEEEENS3_IS6_EEE26__swap_out_circular_bufferERNS_14__split_bufferIS6_RS7_EE, symObjAddr: 0x4A74, symBinAddr: 0x100006508, symSize: 0x118 }
  - { offsetInCU: 0x19347, offset: 0x19347, size: 0x8, addend: 0x0, symName: __ZNSt3__114__split_bufferINS_5stackIcNS_5dequeIcNS_9allocatorIcEEEEEERNS3_IS6_EEED1Ev, symObjAddr: 0x4B8C, symBinAddr: 0x100006620, symSize: 0x2C }
  - { offsetInCU: 0x1934F, offset: 0x1934F, size: 0x8, addend: 0x0, symName: __ZNKSt3__16vectorINS_5stackIcNS_5dequeIcNS_9allocatorIcEEEEEENS3_IS6_EEE8max_sizeEv, symObjAddr: 0x4BB8, symBinAddr: 0x10000664C, symSize: 0x60 }
  - { offsetInCU: 0x19378, offset: 0x19378, size: 0x8, addend: 0x0, symName: __ZNKSt3__16vectorINS_5stackIcNS_5dequeIcNS_9allocatorIcEEEEEENS3_IS6_EEE8max_sizeEv, symObjAddr: 0x4BB8, symBinAddr: 0x10000664C, symSize: 0x60 }
  - { offsetInCU: 0x19380, offset: 0x19380, size: 0x8, addend: 0x0, symName: __ZNKSt3__16vectorINS_5stackIcNS_5dequeIcNS_9allocatorIcEEEEEENS3_IS6_EEE20__throw_length_errorB7v160006Ev, symObjAddr: 0x4C18, symBinAddr: 0x1000066AC, symSize: 0x1C }
  - { offsetInCU: 0x193A5, offset: 0x193A5, size: 0x8, addend: 0x0, symName: __ZNKSt3__16vectorINS_5stackIcNS_5dequeIcNS_9allocatorIcEEEEEENS3_IS6_EEE20__throw_length_errorB7v160006Ev, symObjAddr: 0x4C18, symBinAddr: 0x1000066AC, symSize: 0x1C }
  - { offsetInCU: 0x193AD, offset: 0x193AD, size: 0x8, addend: 0x0, symName: __ZNKSt3__16vectorINS_5stackIcNS_5dequeIcNS_9allocatorIcEEEEEENS3_IS6_EEE8capacityB7v160006Ev, symObjAddr: 0x4C34, symBinAddr: 0x1000066C8, symSize: 0x40 }
  - { offsetInCU: 0x193D0, offset: 0x193D0, size: 0x8, addend: 0x0, symName: __ZNKSt3__16vectorINS_5stackIcNS_5dequeIcNS_9allocatorIcEEEEEENS3_IS6_EEE8capacityB7v160006Ev, symObjAddr: 0x4C34, symBinAddr: 0x1000066C8, symSize: 0x40 }
  - { offsetInCU: 0x193D8, offset: 0x193D8, size: 0x8, addend: 0x0, symName: __ZNSt3__116allocator_traitsINS_9allocatorINS_5stackIcNS_5dequeIcNS1_IcEEEEEEEEE8max_sizeB7v160006IS7_vvEEmRKS7_, symObjAddr: 0x4C74, symBinAddr: 0x100006708, symSize: 0x28 }
  - { offsetInCU: 0x19406, offset: 0x19406, size: 0x8, addend: 0x0, symName: __ZNSt3__116allocator_traitsINS_9allocatorINS_5stackIcNS_5dequeIcNS1_IcEEEEEEEEE8max_sizeB7v160006IS7_vvEEmRKS7_, symObjAddr: 0x4C74, symBinAddr: 0x100006708, symSize: 0x28 }
  - { offsetInCU: 0x1940E, offset: 0x1940E, size: 0x8, addend: 0x0, symName: __ZNKSt3__16vectorINS_5stackIcNS_5dequeIcNS_9allocatorIcEEEEEENS3_IS6_EEE7__allocB7v160006Ev, symObjAddr: 0x4C9C, symBinAddr: 0x100006730, symSize: 0x28 }
  - { offsetInCU: 0x19436, offset: 0x19436, size: 0x8, addend: 0x0, symName: __ZNKSt3__16vectorINS_5stackIcNS_5dequeIcNS_9allocatorIcEEEEEENS3_IS6_EEE7__allocB7v160006Ev, symObjAddr: 0x4C9C, symBinAddr: 0x100006730, symSize: 0x28 }
  - { offsetInCU: 0x1943E, offset: 0x1943E, size: 0x8, addend: 0x0, symName: __ZNKSt3__117__compressed_pairIPNS_5stackIcNS_5dequeIcNS_9allocatorIcEEEEEENS3_IS6_EEE6secondB7v160006Ev, symObjAddr: 0x4CC4, symBinAddr: 0x100006758, symSize: 0x24 }
  - { offsetInCU: 0x19461, offset: 0x19461, size: 0x8, addend: 0x0, symName: __ZNKSt3__117__compressed_pairIPNS_5stackIcNS_5dequeIcNS_9allocatorIcEEEEEENS3_IS6_EEE6secondB7v160006Ev, symObjAddr: 0x4CC4, symBinAddr: 0x100006758, symSize: 0x24 }
  - { offsetInCU: 0x19469, offset: 0x19469, size: 0x8, addend: 0x0, symName: __ZNKSt3__122__compressed_pair_elemINS_9allocatorINS_5stackIcNS_5dequeIcNS1_IcEEEEEEEELi1ELb1EE5__getB7v160006Ev, symObjAddr: 0x4CE8, symBinAddr: 0x10000677C, symSize: 0x14 }
  - { offsetInCU: 0x1948C, offset: 0x1948C, size: 0x8, addend: 0x0, symName: __ZNKSt3__122__compressed_pair_elemINS_9allocatorINS_5stackIcNS_5dequeIcNS1_IcEEEEEEEELi1ELb1EE5__getB7v160006Ev, symObjAddr: 0x4CE8, symBinAddr: 0x10000677C, symSize: 0x14 }
  - { offsetInCU: 0x19494, offset: 0x19494, size: 0x8, addend: 0x0, symName: __ZNKSt3__16vectorINS_5stackIcNS_5dequeIcNS_9allocatorIcEEEEEENS3_IS6_EEE9__end_capB7v160006Ev, symObjAddr: 0x4CFC, symBinAddr: 0x100006790, symSize: 0x28 }
  - { offsetInCU: 0x194B8, offset: 0x194B8, size: 0x8, addend: 0x0, symName: __ZNKSt3__16vectorINS_5stackIcNS_5dequeIcNS_9allocatorIcEEEEEENS3_IS6_EEE9__end_capB7v160006Ev, symObjAddr: 0x4CFC, symBinAddr: 0x100006790, symSize: 0x28 }
  - { offsetInCU: 0x194C0, offset: 0x194C0, size: 0x8, addend: 0x0, symName: __ZNKSt3__117__compressed_pairIPNS_5stackIcNS_5dequeIcNS_9allocatorIcEEEEEENS3_IS6_EEE5firstB7v160006Ev, symObjAddr: 0x4D24, symBinAddr: 0x1000067B8, symSize: 0x24 }
  - { offsetInCU: 0x194E3, offset: 0x194E3, size: 0x8, addend: 0x0, symName: __ZNKSt3__117__compressed_pairIPNS_5stackIcNS_5dequeIcNS_9allocatorIcEEEEEENS3_IS6_EEE5firstB7v160006Ev, symObjAddr: 0x4D24, symBinAddr: 0x1000067B8, symSize: 0x24 }
  - { offsetInCU: 0x194EB, offset: 0x194EB, size: 0x8, addend: 0x0, symName: __ZNKSt3__122__compressed_pair_elemIPNS_5stackIcNS_5dequeIcNS_9allocatorIcEEEEEELi0ELb0EE5__getB7v160006Ev, symObjAddr: 0x4D48, symBinAddr: 0x1000067DC, symSize: 0x14 }
  - { offsetInCU: 0x1950E, offset: 0x1950E, size: 0x8, addend: 0x0, symName: __ZNKSt3__122__compressed_pair_elemIPNS_5stackIcNS_5dequeIcNS_9allocatorIcEEEEEELi0ELb0EE5__getB7v160006Ev, symObjAddr: 0x4D48, symBinAddr: 0x1000067DC, symSize: 0x14 }
  - { offsetInCU: 0x19516, offset: 0x19516, size: 0x8, addend: 0x0, symName: __ZNSt3__114__split_bufferINS_5stackIcNS_5dequeIcNS_9allocatorIcEEEEEERNS3_IS6_EEEC2EmmS8_, symObjAddr: 0x4D5C, symBinAddr: 0x1000067F0, symSize: 0xE0 }
  - { offsetInCU: 0x1953A, offset: 0x1953A, size: 0x8, addend: 0x0, symName: __ZNSt3__114__split_bufferINS_5stackIcNS_5dequeIcNS_9allocatorIcEEEEEERNS3_IS6_EEEC2EmmS8_, symObjAddr: 0x4D5C, symBinAddr: 0x1000067F0, symSize: 0xE0 }
  - { offsetInCU: 0x19542, offset: 0x19542, size: 0x8, addend: 0x0, symName: __ZNSt3__117__compressed_pairIPNS_5stackIcNS_5dequeIcNS_9allocatorIcEEEEEERNS3_IS6_EEEC1B7v160006IDnS9_EEOT_OT0_, symObjAddr: 0x4E3C, symBinAddr: 0x1000068D0, symSize: 0x3C }
  - { offsetInCU: 0x195B6, offset: 0x195B6, size: 0x8, addend: 0x0, symName: __ZNSt3__117__compressed_pairIPNS_5stackIcNS_5dequeIcNS_9allocatorIcEEEEEERNS3_IS6_EEEC1B7v160006IDnS9_EEOT_OT0_, symObjAddr: 0x4E3C, symBinAddr: 0x1000068D0, symSize: 0x3C }
  - { offsetInCU: 0x195BE, offset: 0x195BE, size: 0x8, addend: 0x0, symName: __ZNSt3__119__allocate_at_leastB7v160006INS_9allocatorINS_5stackIcNS_5dequeIcNS1_IcEEEEEEEEEENS_19__allocation_resultINS_16allocator_traitsIT_E7pointerEEERSA_m, symObjAddr: 0x4E78, symBinAddr: 0x10000690C, symSize: 0x40 }
  - { offsetInCU: 0x19613, offset: 0x19613, size: 0x8, addend: 0x0, symName: __ZNSt3__114__split_bufferINS_5stackIcNS_5dequeIcNS_9allocatorIcEEEEEERNS3_IS6_EEE7__allocB7v160006Ev, symObjAddr: 0x4EB8, symBinAddr: 0x10000694C, symSize: 0x28 }
  - { offsetInCU: 0x1961B, offset: 0x1961B, size: 0x8, addend: 0x0, symName: __ZNSt3__114__split_bufferINS_5stackIcNS_5dequeIcNS_9allocatorIcEEEEEERNS3_IS6_EEE9__end_capB7v160006Ev, symObjAddr: 0x4EE0, symBinAddr: 0x100006974, symSize: 0x28 }
  - { offsetInCU: 0x1963E, offset: 0x1963E, size: 0x8, addend: 0x0, symName: __ZNSt3__114__split_bufferINS_5stackIcNS_5dequeIcNS_9allocatorIcEEEEEERNS3_IS6_EEE9__end_capB7v160006Ev, symObjAddr: 0x4EE0, symBinAddr: 0x100006974, symSize: 0x28 }
  - { offsetInCU: 0x19646, offset: 0x19646, size: 0x8, addend: 0x0, symName: __ZNSt3__117__compressed_pairIPNS_5stackIcNS_5dequeIcNS_9allocatorIcEEEEEERNS3_IS6_EEEC2B7v160006IDnS9_EEOT_OT0_, symObjAddr: 0x4F08, symBinAddr: 0x10000699C, symSize: 0x48 }
  - { offsetInCU: 0x19669, offset: 0x19669, size: 0x8, addend: 0x0, symName: __ZNSt3__117__compressed_pairIPNS_5stackIcNS_5dequeIcNS_9allocatorIcEEEEEERNS3_IS6_EEEC2B7v160006IDnS9_EEOT_OT0_, symObjAddr: 0x4F08, symBinAddr: 0x10000699C, symSize: 0x48 }
  - { offsetInCU: 0x19671, offset: 0x19671, size: 0x8, addend: 0x0, symName: __ZNSt3__122__compressed_pair_elemIRNS_9allocatorINS_5stackIcNS_5dequeIcNS1_IcEEEEEEEELi1ELb0EEC2B7v160006IS8_vEEOT_, symObjAddr: 0x4F50, symBinAddr: 0x1000069E4, symSize: 0x20 }
  - { offsetInCU: 0x196C6, offset: 0x196C6, size: 0x8, addend: 0x0, symName: __ZNSt3__122__compressed_pair_elemIRNS_9allocatorINS_5stackIcNS_5dequeIcNS1_IcEEEEEEEELi1ELb0EEC2B7v160006IS8_vEEOT_, symObjAddr: 0x4F50, symBinAddr: 0x1000069E4, symSize: 0x20 }
  - { offsetInCU: 0x196CE, offset: 0x196CE, size: 0x8, addend: 0x0, symName: __ZNSt3__19allocatorINS_5stackIcNS_5dequeIcNS0_IcEEEEEEE8allocateB7v160006Em, symObjAddr: 0x4F70, symBinAddr: 0x100006A04, symSize: 0x5C }
  - { offsetInCU: 0x1970E, offset: 0x1970E, size: 0x8, addend: 0x0, symName: __ZNSt3__19allocatorINS_5stackIcNS_5dequeIcNS0_IcEEEEEEE8allocateB7v160006Em, symObjAddr: 0x4F70, symBinAddr: 0x100006A04, symSize: 0x5C }
  - { offsetInCU: 0x19716, offset: 0x19716, size: 0x8, addend: 0x0, symName: __ZNSt3__117__compressed_pairIPNS_5stackIcNS_5dequeIcNS_9allocatorIcEEEEEERNS3_IS6_EEE6secondB7v160006Ev, symObjAddr: 0x4FCC, symBinAddr: 0x100006A60, symSize: 0x28 }
  - { offsetInCU: 0x19747, offset: 0x19747, size: 0x8, addend: 0x0, symName: __ZNSt3__117__compressed_pairIPNS_5stackIcNS_5dequeIcNS_9allocatorIcEEEEEERNS3_IS6_EEE6secondB7v160006Ev, symObjAddr: 0x4FCC, symBinAddr: 0x100006A60, symSize: 0x28 }
  - { offsetInCU: 0x1974F, offset: 0x1974F, size: 0x8, addend: 0x0, symName: __ZNSt3__122__compressed_pair_elemIRNS_9allocatorINS_5stackIcNS_5dequeIcNS1_IcEEEEEEEELi1ELb0EE5__getB7v160006Ev, symObjAddr: 0x4FF4, symBinAddr: 0x100006A88, symSize: 0x18 }
  - { offsetInCU: 0x19772, offset: 0x19772, size: 0x8, addend: 0x0, symName: __ZNSt3__122__compressed_pair_elemIRNS_9allocatorINS_5stackIcNS_5dequeIcNS1_IcEEEEEEEELi1ELb0EE5__getB7v160006Ev, symObjAddr: 0x4FF4, symBinAddr: 0x100006A88, symSize: 0x18 }
  - { offsetInCU: 0x1977A, offset: 0x1977A, size: 0x8, addend: 0x0, symName: __ZNSt3__117__compressed_pairIPNS_5stackIcNS_5dequeIcNS_9allocatorIcEEEEEERNS3_IS6_EEE5firstB7v160006Ev, symObjAddr: 0x500C, symBinAddr: 0x100006AA0, symSize: 0x24 }
  - { offsetInCU: 0x1979E, offset: 0x1979E, size: 0x8, addend: 0x0, symName: __ZNSt3__117__compressed_pairIPNS_5stackIcNS_5dequeIcNS_9allocatorIcEEEEEERNS3_IS6_EEE5firstB7v160006Ev, symObjAddr: 0x500C, symBinAddr: 0x100006AA0, symSize: 0x24 }
  - { offsetInCU: 0x197A6, offset: 0x197A6, size: 0x8, addend: 0x0, symName: __ZNKSt3__16vectorINS_5stackIcNS_5dequeIcNS_9allocatorIcEEEEEENS3_IS6_EEE17__annotate_deleteB7v160006Ev, symObjAddr: 0x5030, symBinAddr: 0x100006AC4, symSize: 0xD4 }
  - { offsetInCU: 0x197C9, offset: 0x197C9, size: 0x8, addend: 0x0, symName: __ZNKSt3__16vectorINS_5stackIcNS_5dequeIcNS_9allocatorIcEEEEEENS3_IS6_EEE17__annotate_deleteB7v160006Ev, symObjAddr: 0x5030, symBinAddr: 0x100006AC4, symSize: 0xD4 }
  - { offsetInCU: 0x197D1, offset: 0x197D1, size: 0x8, addend: 0x0, symName: __ZNSt3__142__uninitialized_allocator_move_if_noexceptB7v160006INS_9allocatorINS_5stackIcNS_5dequeIcNS1_IcEEEEEEEENS_16reverse_iteratorIPS6_EESA_SA_EET2_RT_T0_T1_SB_, symObjAddr: 0x5104, symBinAddr: 0x100006B98, symSize: 0x12C }
  - { offsetInCU: 0x197F4, offset: 0x197F4, size: 0x8, addend: 0x0, symName: __ZNSt3__116reverse_iteratorIPNS_5stackIcNS_5dequeIcNS_9allocatorIcEEEEEEEC1B7v160006ES7_, symObjAddr: 0x5230, symBinAddr: 0x100006CC4, symSize: 0x34 }
  - { offsetInCU: 0x197FC, offset: 0x197FC, size: 0x8, addend: 0x0, symName: __ZNKSt3__116reverse_iteratorIPNS_5stackIcNS_5dequeIcNS_9allocatorIcEEEEEEE4baseB7v160006Ev, symObjAddr: 0x5264, symBinAddr: 0x100006CF8, symSize: 0x18 }
  - { offsetInCU: 0x19831, offset: 0x19831, size: 0x8, addend: 0x0, symName: __ZNKSt3__116reverse_iteratorIPNS_5stackIcNS_5dequeIcNS_9allocatorIcEEEEEEE4baseB7v160006Ev, symObjAddr: 0x5264, symBinAddr: 0x100006CF8, symSize: 0x18 }
  - { offsetInCU: 0x19839, offset: 0x19839, size: 0x8, addend: 0x0, symName: __ZNSt3__14swapB7v160006IPNS_5stackIcNS_5dequeIcNS_9allocatorIcEEEEEEEENS_9enable_ifIXaasr21is_move_constructibleIT_EE5valuesr18is_move_assignableIS9_EE5valueEvE4typeERS9_SC_, symObjAddr: 0x527C, symBinAddr: 0x100006D10, symSize: 0x3C }
  - { offsetInCU: 0x1985D, offset: 0x1985D, size: 0x8, addend: 0x0, symName: __ZNKSt3__16vectorINS_5stackIcNS_5dequeIcNS_9allocatorIcEEEEEENS3_IS6_EEE14__annotate_newB7v160006Em, symObjAddr: 0x52B8, symBinAddr: 0x100006D4C, symSize: 0xC8 }
  - { offsetInCU: 0x19865, offset: 0x19865, size: 0x8, addend: 0x0, symName: __ZNSt3__125__debug_db_invalidate_allB7v160006INS_6vectorINS_5stackIcNS_5dequeIcNS_9allocatorIcEEEEEENS4_IS7_EEEEEEvPT_, symObjAddr: 0x5380, symBinAddr: 0x100006E14, symSize: 0x10 }
  - { offsetInCU: 0x19897, offset: 0x19897, size: 0x8, addend: 0x0, symName: __ZNKSt3__16vectorINS_5stackIcNS_5dequeIcNS_9allocatorIcEEEEEENS3_IS6_EEE31__annotate_contiguous_containerB7v160006EPKvSA_SA_SA_, symObjAddr: 0x5390, symBinAddr: 0x100006E24, symSize: 0x20 }
  - { offsetInCU: 0x1989F, offset: 0x1989F, size: 0x8, addend: 0x0, symName: __ZNKSt3__16vectorINS_5stackIcNS_5dequeIcNS_9allocatorIcEEEEEENS3_IS6_EEE4dataB7v160006Ev, symObjAddr: 0x53B0, symBinAddr: 0x100006E44, symSize: 0x28 }
  - { offsetInCU: 0x198F3, offset: 0x198F3, size: 0x8, addend: 0x0, symName: __ZNKSt3__16vectorINS_5stackIcNS_5dequeIcNS_9allocatorIcEEEEEENS3_IS6_EEE4dataB7v160006Ev, symObjAddr: 0x53B0, symBinAddr: 0x100006E44, symSize: 0x28 }
  - { offsetInCU: 0x198FB, offset: 0x198FB, size: 0x8, addend: 0x0, symName: __ZNSt3__122__make_exception_guardB7v160006INS_29_AllocatorDestroyRangeReverseINS_9allocatorINS_5stackIcNS_5dequeIcNS2_IcEEEEEEEENS_16reverse_iteratorIPS7_EEEEEENS_28__exception_guard_exceptionsIT_EESE_, symObjAddr: 0x53D8, symBinAddr: 0x100006E6C, symSize: 0x4C }
  - { offsetInCU: 0x1991E, offset: 0x1991E, size: 0x8, addend: 0x0, symName: __ZNSt3__129_AllocatorDestroyRangeReverseINS_9allocatorINS_5stackIcNS_5dequeIcNS1_IcEEEEEEEENS_16reverse_iteratorIPS6_EEEC1B7v160006ERS7_RSA_SD_, symObjAddr: 0x5424, symBinAddr: 0x100006EB8, symSize: 0x44 }
  - { offsetInCU: 0x19926, offset: 0x19926, size: 0x8, addend: 0x0, symName: __ZNSt3__1neB7v160006IPNS_5stackIcNS_5dequeIcNS_9allocatorIcEEEEEES7_EEbRKNS_16reverse_iteratorIT_EERKNS8_IT0_EE, symObjAddr: 0x5468, symBinAddr: 0x100006EFC, symSize: 0x48 }
  - { offsetInCU: 0x1997A, offset: 0x1997A, size: 0x8, addend: 0x0, symName: __ZNSt3__116allocator_traitsINS_9allocatorINS_5stackIcNS_5dequeIcNS1_IcEEEEEEEEE9constructB7v160006IS6_JS6_EvvEEvRS7_PT_DpOT0_, symObjAddr: 0x54B0, symBinAddr: 0x100006F44, symSize: 0x30 }
  - { offsetInCU: 0x19982, offset: 0x19982, size: 0x8, addend: 0x0, symName: __ZNSt3__112__to_addressB7v160006INS_16reverse_iteratorIPNS_5stackIcNS_5dequeIcNS_9allocatorIcEEEEEEEEvEENS_5decayIDTclsr19__to_address_helperIT_EE6__callclsr3stdE7declvalIRKSB_EEEEE4typeESD_, symObjAddr: 0x54E0, symBinAddr: 0x100006F74, symSize: 0x24 }
  - { offsetInCU: 0x199D3, offset: 0x199D3, size: 0x8, addend: 0x0, symName: __ZNKSt3__116reverse_iteratorIPNS_5stackIcNS_5dequeIcNS_9allocatorIcEEEEEEEdeB7v160006Ev, symObjAddr: 0x5504, symBinAddr: 0x100006F98, symSize: 0x28 }
  - { offsetInCU: 0x199DB, offset: 0x199DB, size: 0x8, addend: 0x0, symName: __ZNSt3__116reverse_iteratorIPNS_5stackIcNS_5dequeIcNS_9allocatorIcEEEEEEEppB7v160006Ev, symObjAddr: 0x552C, symBinAddr: 0x100006FC0, symSize: 0x20 }
  - { offsetInCU: 0x19A0D, offset: 0x19A0D, size: 0x8, addend: 0x0, symName: __ZNSt3__116reverse_iteratorIPNS_5stackIcNS_5dequeIcNS_9allocatorIcEEEEEEEppB7v160006Ev, symObjAddr: 0x552C, symBinAddr: 0x100006FC0, symSize: 0x20 }
  - { offsetInCU: 0x19A15, offset: 0x19A15, size: 0x8, addend: 0x0, symName: __ZNSt3__128__exception_guard_exceptionsINS_29_AllocatorDestroyRangeReverseINS_9allocatorINS_5stackIcNS_5dequeIcNS2_IcEEEEEEEENS_16reverse_iteratorIPS7_EEEEE10__completeB7v160006Ev, symObjAddr: 0x554C, symBinAddr: 0x100006FE0, symSize: 0x1C }
  - { offsetInCU: 0x19A39, offset: 0x19A39, size: 0x8, addend: 0x0, symName: __ZNSt3__128__exception_guard_exceptionsINS_29_AllocatorDestroyRangeReverseINS_9allocatorINS_5stackIcNS_5dequeIcNS2_IcEEEEEEEENS_16reverse_iteratorIPS7_EEEEE10__completeB7v160006Ev, symObjAddr: 0x554C, symBinAddr: 0x100006FE0, symSize: 0x1C }
  - { offsetInCU: 0x19A41, offset: 0x19A41, size: 0x8, addend: 0x0, symName: __ZNSt3__128__exception_guard_exceptionsINS_29_AllocatorDestroyRangeReverseINS_9allocatorINS_5stackIcNS_5dequeIcNS2_IcEEEEEEEENS_16reverse_iteratorIPS7_EEEEED1B7v160006Ev, symObjAddr: 0x5568, symBinAddr: 0x100006FFC, symSize: 0x2C }
  - { offsetInCU: 0x19A65, offset: 0x19A65, size: 0x8, addend: 0x0, symName: __ZNSt3__128__exception_guard_exceptionsINS_29_AllocatorDestroyRangeReverseINS_9allocatorINS_5stackIcNS_5dequeIcNS2_IcEEEEEEEENS_16reverse_iteratorIPS7_EEEEED1B7v160006Ev, symObjAddr: 0x5568, symBinAddr: 0x100006FFC, symSize: 0x2C }
  - { offsetInCU: 0x19A6D, offset: 0x19A6D, size: 0x8, addend: 0x0, symName: __ZNSt3__128__exception_guard_exceptionsINS_29_AllocatorDestroyRangeReverseINS_9allocatorINS_5stackIcNS_5dequeIcNS2_IcEEEEEEEENS_16reverse_iteratorIPS7_EEEEEC1B7v160006ESC_, symObjAddr: 0x5594, symBinAddr: 0x100007028, symSize: 0x34 }
  - { offsetInCU: 0x19A94, offset: 0x19A94, size: 0x8, addend: 0x0, symName: __ZNSt3__128__exception_guard_exceptionsINS_29_AllocatorDestroyRangeReverseINS_9allocatorINS_5stackIcNS_5dequeIcNS2_IcEEEEEEEENS_16reverse_iteratorIPS7_EEEEEC1B7v160006ESC_, symObjAddr: 0x5594, symBinAddr: 0x100007028, symSize: 0x34 }
  - { offsetInCU: 0x19A9C, offset: 0x19A9C, size: 0x8, addend: 0x0, symName: __ZNSt3__128__exception_guard_exceptionsINS_29_AllocatorDestroyRangeReverseINS_9allocatorINS_5stackIcNS_5dequeIcNS2_IcEEEEEEEENS_16reverse_iteratorIPS7_EEEEEC2B7v160006ESC_, symObjAddr: 0x55C8, symBinAddr: 0x10000705C, symSize: 0x30 }
  - { offsetInCU: 0x19AD2, offset: 0x19AD2, size: 0x8, addend: 0x0, symName: __ZNSt3__128__exception_guard_exceptionsINS_29_AllocatorDestroyRangeReverseINS_9allocatorINS_5stackIcNS_5dequeIcNS2_IcEEEEEEEENS_16reverse_iteratorIPS7_EEEEEC2B7v160006ESC_, symObjAddr: 0x55C8, symBinAddr: 0x10000705C, symSize: 0x30 }
  - { offsetInCU: 0x19ADA, offset: 0x19ADA, size: 0x8, addend: 0x0, symName: __ZNSt3__129_AllocatorDestroyRangeReverseINS_9allocatorINS_5stackIcNS_5dequeIcNS1_IcEEEEEEEENS_16reverse_iteratorIPS6_EEEC2B7v160006ERS7_RSA_SD_, symObjAddr: 0x55F8, symBinAddr: 0x10000708C, symSize: 0x38 }
  - { offsetInCU: 0x19B11, offset: 0x19B11, size: 0x8, addend: 0x0, symName: __ZNSt3__129_AllocatorDestroyRangeReverseINS_9allocatorINS_5stackIcNS_5dequeIcNS1_IcEEEEEEEENS_16reverse_iteratorIPS6_EEEC2B7v160006ERS7_RSA_SD_, symObjAddr: 0x55F8, symBinAddr: 0x10000708C, symSize: 0x38 }
  - { offsetInCU: 0x19B19, offset: 0x19B19, size: 0x8, addend: 0x0, symName: __ZNSt3__112construct_atB7v160006INS_5stackIcNS_5dequeIcNS_9allocatorIcEEEEEEJS6_EPS6_EEPT_S9_DpOT0_, symObjAddr: 0x5630, symBinAddr: 0x1000070C4, symSize: 0x3C }
  - { offsetInCU: 0x19B6E, offset: 0x19B6E, size: 0x8, addend: 0x0, symName: __ZNSt3__15stackIcNS_5dequeIcNS_9allocatorIcEEEEEC1B7v160006EOS5_, symObjAddr: 0x566C, symBinAddr: 0x100007100, symSize: 0x34 }
  - { offsetInCU: 0x19B76, offset: 0x19B76, size: 0x8, addend: 0x0, symName: __ZNSt3__15stackIcNS_5dequeIcNS_9allocatorIcEEEEEC2B7v160006EOS5_, symObjAddr: 0x56A0, symBinAddr: 0x100007134, symSize: 0x34 }
  - { offsetInCU: 0x19BAB, offset: 0x19BAB, size: 0x8, addend: 0x0, symName: __ZNSt3__15stackIcNS_5dequeIcNS_9allocatorIcEEEEEC2B7v160006EOS5_, symObjAddr: 0x56A0, symBinAddr: 0x100007134, symSize: 0x34 }
  - { offsetInCU: 0x19BB3, offset: 0x19BB3, size: 0x8, addend: 0x0, symName: __ZNSt3__15dequeIcNS_9allocatorIcEEEC1EOS3_, symObjAddr: 0x56D4, symBinAddr: 0x100007168, symSize: 0x34 }
  - { offsetInCU: 0x19BE8, offset: 0x19BE8, size: 0x8, addend: 0x0, symName: __ZNSt3__15dequeIcNS_9allocatorIcEEEC1EOS3_, symObjAddr: 0x56D4, symBinAddr: 0x100007168, symSize: 0x34 }
  - { offsetInCU: 0x19BF0, offset: 0x19BF0, size: 0x8, addend: 0x0, symName: __ZNSt3__15dequeIcNS_9allocatorIcEEEC2EOS3_, symObjAddr: 0x5708, symBinAddr: 0x10000719C, symSize: 0x68 }
  - { offsetInCU: 0x19C28, offset: 0x19C28, size: 0x8, addend: 0x0, symName: __ZNSt3__15dequeIcNS_9allocatorIcEEEC2EOS3_, symObjAddr: 0x5708, symBinAddr: 0x10000719C, symSize: 0x68 }
  - { offsetInCU: 0x19C30, offset: 0x19C30, size: 0x8, addend: 0x0, symName: __ZNSt3__114__split_bufferIPcNS_9allocatorIS1_EEEC1EOS4_, symObjAddr: 0x5770, symBinAddr: 0x100007204, symSize: 0x34 }
  - { offsetInCU: 0x19C68, offset: 0x19C68, size: 0x8, addend: 0x0, symName: __ZNSt3__114__split_bufferIPcNS_9allocatorIS1_EEEC1EOS4_, symObjAddr: 0x5770, symBinAddr: 0x100007204, symSize: 0x34 }
  - { offsetInCU: 0x19C70, offset: 0x19C70, size: 0x8, addend: 0x0, symName: __ZNSt3__114__split_bufferIPcNS_9allocatorIS1_EEEC2EOS4_, symObjAddr: 0x57A4, symBinAddr: 0x100007238, symSize: 0x84 }
  - { offsetInCU: 0x19CA7, offset: 0x19CA7, size: 0x8, addend: 0x0, symName: __ZNSt3__114__split_bufferIPcNS_9allocatorIS1_EEEC2EOS4_, symObjAddr: 0x57A4, symBinAddr: 0x100007238, symSize: 0x84 }
  - { offsetInCU: 0x19CAF, offset: 0x19CAF, size: 0x8, addend: 0x0, symName: __ZNSt3__114__split_bufferIPcNS_9allocatorIS1_EEE9__end_capB7v160006Ev, symObjAddr: 0x5828, symBinAddr: 0x1000072BC, symSize: 0x28 }
  - { offsetInCU: 0x19CE6, offset: 0x19CE6, size: 0x8, addend: 0x0, symName: __ZNSt3__114__split_bufferIPcNS_9allocatorIS1_EEE9__end_capB7v160006Ev, symObjAddr: 0x5828, symBinAddr: 0x1000072BC, symSize: 0x28 }
  - { offsetInCU: 0x19CEE, offset: 0x19CEE, size: 0x8, addend: 0x0, symName: __ZNSt3__117__compressed_pairIPPcNS_9allocatorIS1_EEE5firstB7v160006Ev, symObjAddr: 0x5850, symBinAddr: 0x1000072E4, symSize: 0x24 }
  - { offsetInCU: 0x19D11, offset: 0x19D11, size: 0x8, addend: 0x0, symName: __ZNSt3__117__compressed_pairIPPcNS_9allocatorIS1_EEE5firstB7v160006Ev, symObjAddr: 0x5850, symBinAddr: 0x1000072E4, symSize: 0x24 }
  - { offsetInCU: 0x19D19, offset: 0x19D19, size: 0x8, addend: 0x0, symName: __ZNSt3__122__compressed_pair_elemIPPcLi0ELb0EE5__getB7v160006Ev, symObjAddr: 0x5874, symBinAddr: 0x100007308, symSize: 0x14 }
  - { offsetInCU: 0x19D3C, offset: 0x19D3C, size: 0x8, addend: 0x0, symName: __ZNSt3__122__compressed_pair_elemIPPcLi0ELb0EE5__getB7v160006Ev, symObjAddr: 0x5874, symBinAddr: 0x100007308, symSize: 0x14 }
  - { offsetInCU: 0x19D44, offset: 0x19D44, size: 0x8, addend: 0x0, symName: __ZNSt3__119__to_address_helperINS_16reverse_iteratorIPNS_5stackIcNS_5dequeIcNS_9allocatorIcEEEEEEEEvE6__callB7v160006ERKS9_, symObjAddr: 0x5888, symBinAddr: 0x10000731C, symSize: 0x38 }
  - { offsetInCU: 0x19D6E, offset: 0x19D6E, size: 0x8, addend: 0x0, symName: __ZNSt3__119__to_address_helperINS_16reverse_iteratorIPNS_5stackIcNS_5dequeIcNS_9allocatorIcEEEEEEEEvE6__callB7v160006ERKS9_, symObjAddr: 0x5888, symBinAddr: 0x10000731C, symSize: 0x38 }
  - { offsetInCU: 0x19D76, offset: 0x19D76, size: 0x8, addend: 0x0, symName: __ZNKSt3__116reverse_iteratorIPNS_5stackIcNS_5dequeIcNS_9allocatorIcEEEEEEEptB7v160006Ev, symObjAddr: 0x58C0, symBinAddr: 0x100007354, symSize: 0x2C }
  - { offsetInCU: 0x19D95, offset: 0x19D95, size: 0x8, addend: 0x0, symName: __ZNKSt3__116reverse_iteratorIPNS_5stackIcNS_5dequeIcNS_9allocatorIcEEEEEEEptB7v160006Ev, symObjAddr: 0x58C0, symBinAddr: 0x100007354, symSize: 0x2C }
  - { offsetInCU: 0x19D9D, offset: 0x19D9D, size: 0x8, addend: 0x0, symName: __ZNSt3__14prevB7v160006IPNS_5stackIcNS_5dequeIcNS_9allocatorIcEEEEEEEENS_9enable_ifIXsr25__is_cpp17_input_iteratorIT_EE5valueES9_E4typeES9_NS_15iterator_traitsIS9_E15difference_typeE, symObjAddr: 0x58EC, symBinAddr: 0x100007380, symSize: 0x50 }
  - { offsetInCU: 0x19DC0, offset: 0x19DC0, size: 0x8, addend: 0x0, symName: __ZNSt3__128__exception_guard_exceptionsINS_29_AllocatorDestroyRangeReverseINS_9allocatorINS_5stackIcNS_5dequeIcNS2_IcEEEEEEEENS_16reverse_iteratorIPS7_EEEEED2B7v160006Ev, symObjAddr: 0x59BC, symBinAddr: 0x100007450, symSize: 0x50 }
  - { offsetInCU: 0x19DC8, offset: 0x19DC8, size: 0x8, addend: 0x0, symName: __ZNKSt3__129_AllocatorDestroyRangeReverseINS_9allocatorINS_5stackIcNS_5dequeIcNS1_IcEEEEEEEENS_16reverse_iteratorIPS6_EEEclB7v160006Ev, symObjAddr: 0x5A0C, symBinAddr: 0x1000074A0, symSize: 0xB4 }
  - { offsetInCU: 0x19DEF, offset: 0x19DEF, size: 0x8, addend: 0x0, symName: __ZNKSt3__129_AllocatorDestroyRangeReverseINS_9allocatorINS_5stackIcNS_5dequeIcNS1_IcEEEEEEEENS_16reverse_iteratorIPS6_EEEclB7v160006Ev, symObjAddr: 0x5A0C, symBinAddr: 0x1000074A0, symSize: 0xB4 }
  - { offsetInCU: 0x19DF7, offset: 0x19DF7, size: 0x8, addend: 0x0, symName: __ZNSt3__119__allocator_destroyB7v160006INS_9allocatorINS_5stackIcNS_5dequeIcNS1_IcEEEEEEEENS_16reverse_iteratorINS8_IPS6_EEEESB_EEvRT_T0_T1_, symObjAddr: 0x5AC0, symBinAddr: 0x100007554, symSize: 0x70 }
  - { offsetInCU: 0x19E1B, offset: 0x19E1B, size: 0x8, addend: 0x0, symName: __ZNSt3__116reverse_iteratorINS0_IPNS_5stackIcNS_5dequeIcNS_9allocatorIcEEEEEEEEEC1B7v160006ES8_, symObjAddr: 0x5B30, symBinAddr: 0x1000075C4, symSize: 0x3C }
  - { offsetInCU: 0x19E23, offset: 0x19E23, size: 0x8, addend: 0x0, symName: __ZNSt3__1neB7v160006INS_16reverse_iteratorIPNS_5stackIcNS_5dequeIcNS_9allocatorIcEEEEEEEES9_EEbRKNS1_IT_EERKNS1_IT0_EE, symObjAddr: 0x5B6C, symBinAddr: 0x100007600, symSize: 0x60 }
  - { offsetInCU: 0x19E58, offset: 0x19E58, size: 0x8, addend: 0x0, symName: __ZNSt3__116allocator_traitsINS_9allocatorINS_5stackIcNS_5dequeIcNS1_IcEEEEEEEEE7destroyB7v160006IS6_vvEEvRS7_PT_, symObjAddr: 0x5BCC, symBinAddr: 0x100007660, symSize: 0x28 }
  - { offsetInCU: 0x19E60, offset: 0x19E60, size: 0x8, addend: 0x0, symName: __ZNSt3__112__to_addressB7v160006INS_16reverse_iteratorINS1_IPNS_5stackIcNS_5dequeIcNS_9allocatorIcEEEEEEEEEEvEENS_5decayIDTclsr19__to_address_helperIT_EE6__callclsr3stdE7declvalIRKSC_EEEEE4typeESE_, symObjAddr: 0x5BF4, symBinAddr: 0x100007688, symSize: 0x24 }
  - { offsetInCU: 0x19E97, offset: 0x19E97, size: 0x8, addend: 0x0, symName: __ZNSt3__116reverse_iteratorINS0_IPNS_5stackIcNS_5dequeIcNS_9allocatorIcEEEEEEEEEppB7v160006Ev, symObjAddr: 0x5C18, symBinAddr: 0x1000076AC, symSize: 0x30 }
  - { offsetInCU: 0x19E9F, offset: 0x19E9F, size: 0x8, addend: 0x0, symName: __ZNKSt3__116reverse_iteratorINS0_IPNS_5stackIcNS_5dequeIcNS_9allocatorIcEEEEEEEEE4baseB7v160006Ev, symObjAddr: 0x5C48, symBinAddr: 0x1000076DC, symSize: 0x24 }
  - { offsetInCU: 0x19EC2, offset: 0x19EC2, size: 0x8, addend: 0x0, symName: __ZNKSt3__116reverse_iteratorINS0_IPNS_5stackIcNS_5dequeIcNS_9allocatorIcEEEEEEEEE4baseB7v160006Ev, symObjAddr: 0x5C48, symBinAddr: 0x1000076DC, symSize: 0x24 }
  - { offsetInCU: 0x19ECA, offset: 0x19ECA, size: 0x8, addend: 0x0, symName: __ZNSt3__110destroy_atB7v160006INS_5stackIcNS_5dequeIcNS_9allocatorIcEEEEEELi0EEEvPT_, symObjAddr: 0x5C6C, symBinAddr: 0x100007700, symSize: 0x24 }
  - { offsetInCU: 0x19EF4, offset: 0x19EF4, size: 0x8, addend: 0x0, symName: __ZNSt3__119__to_address_helperINS_16reverse_iteratorINS1_IPNS_5stackIcNS_5dequeIcNS_9allocatorIcEEEEEEEEEEvE6__callB7v160006ERKSA_, symObjAddr: 0x5CB4, symBinAddr: 0x100007748, symSize: 0x38 }
  - { offsetInCU: 0x19EFC, offset: 0x19EFC, size: 0x8, addend: 0x0, symName: __ZNKSt3__116reverse_iteratorINS0_IPNS_5stackIcNS_5dequeIcNS_9allocatorIcEEEEEEEEEptB7v160006Ev, symObjAddr: 0x5CEC, symBinAddr: 0x100007780, symSize: 0x4C }
  - { offsetInCU: 0x19F1B, offset: 0x19F1B, size: 0x8, addend: 0x0, symName: __ZNKSt3__116reverse_iteratorINS0_IPNS_5stackIcNS_5dequeIcNS_9allocatorIcEEEEEEEEEptB7v160006Ev, symObjAddr: 0x5CEC, symBinAddr: 0x100007780, symSize: 0x4C }
  - { offsetInCU: 0x19F23, offset: 0x19F23, size: 0x8, addend: 0x0, symName: __ZNSt3__14prevB7v160006INS_16reverse_iteratorIPNS_5stackIcNS_5dequeIcNS_9allocatorIcEEEEEEEEEENS_9enable_ifIXsr25__is_cpp17_input_iteratorIT_EE5valueESB_E4typeESB_NS_15iterator_traitsISB_E15difference_typeE, symObjAddr: 0x5D38, symBinAddr: 0x1000077CC, symSize: 0x60 }
  - { offsetInCU: 0x19F46, offset: 0x19F46, size: 0x8, addend: 0x0, symName: __ZNSt3__116reverse_iteratorIPNS_5stackIcNS_5dequeIcNS_9allocatorIcEEEEEEEpLB7v160006El, symObjAddr: 0x5E14, symBinAddr: 0x1000078A8, symSize: 0x30 }
  - { offsetInCU: 0x19F4E, offset: 0x19F4E, size: 0x8, addend: 0x0, symName: __ZNSt3__116reverse_iteratorIPNS_5stackIcNS_5dequeIcNS_9allocatorIcEEEEEEEmmB7v160006Ev, symObjAddr: 0x5E44, symBinAddr: 0x1000078D8, symSize: 0x20 }
  - { offsetInCU: 0x19F80, offset: 0x19F80, size: 0x8, addend: 0x0, symName: __ZNSt3__116reverse_iteratorIPNS_5stackIcNS_5dequeIcNS_9allocatorIcEEEEEEEmmB7v160006Ev, symObjAddr: 0x5E44, symBinAddr: 0x1000078D8, symSize: 0x20 }
  - { offsetInCU: 0x19F88, offset: 0x19F88, size: 0x8, addend: 0x0, symName: __ZNSt3__116reverse_iteratorINS0_IPNS_5stackIcNS_5dequeIcNS_9allocatorIcEEEEEEEEEC2B7v160006ES8_, symObjAddr: 0x5E64, symBinAddr: 0x1000078F8, symSize: 0x2C }
  - { offsetInCU: 0x19FAC, offset: 0x19FAC, size: 0x8, addend: 0x0, symName: __ZNSt3__116reverse_iteratorINS0_IPNS_5stackIcNS_5dequeIcNS_9allocatorIcEEEEEEEEEC2B7v160006ES8_, symObjAddr: 0x5E64, symBinAddr: 0x1000078F8, symSize: 0x2C }
  - { offsetInCU: 0x19FB4, offset: 0x19FB4, size: 0x8, addend: 0x0, symName: __ZNSt3__116reverse_iteratorIPNS_5stackIcNS_5dequeIcNS_9allocatorIcEEEEEEEC2B7v160006ES7_, symObjAddr: 0x5E90, symBinAddr: 0x100007924, symSize: 0x28 }
  - { offsetInCU: 0x19FEA, offset: 0x19FEA, size: 0x8, addend: 0x0, symName: __ZNSt3__116reverse_iteratorIPNS_5stackIcNS_5dequeIcNS_9allocatorIcEEEEEEEC2B7v160006ES7_, symObjAddr: 0x5E90, symBinAddr: 0x100007924, symSize: 0x28 }
  - { offsetInCU: 0x19FF2, offset: 0x19FF2, size: 0x8, addend: 0x0, symName: __ZNSt3__114__split_bufferINS_5stackIcNS_5dequeIcNS_9allocatorIcEEEEEERNS3_IS6_EEED2Ev, symObjAddr: 0x5EB8, symBinAddr: 0x10000794C, symSize: 0x8C }
  - { offsetInCU: 0x1A028, offset: 0x1A028, size: 0x8, addend: 0x0, symName: __ZNSt3__114__split_bufferINS_5stackIcNS_5dequeIcNS_9allocatorIcEEEEEERNS3_IS6_EEED2Ev, symObjAddr: 0x5EB8, symBinAddr: 0x10000794C, symSize: 0x8C }
  - { offsetInCU: 0x1A030, offset: 0x1A030, size: 0x8, addend: 0x0, symName: __ZNSt3__114__split_bufferINS_5stackIcNS_5dequeIcNS_9allocatorIcEEEEEERNS3_IS6_EEE5clearB7v160006Ev, symObjAddr: 0x5F44, symBinAddr: 0x1000079D8, symSize: 0x28 }
  - { offsetInCU: 0x1A059, offset: 0x1A059, size: 0x8, addend: 0x0, symName: __ZNSt3__114__split_bufferINS_5stackIcNS_5dequeIcNS_9allocatorIcEEEEEERNS3_IS6_EEE5clearB7v160006Ev, symObjAddr: 0x5F44, symBinAddr: 0x1000079D8, symSize: 0x28 }
  - { offsetInCU: 0x1A061, offset: 0x1A061, size: 0x8, addend: 0x0, symName: __ZNSt3__116allocator_traitsINS_9allocatorINS_5stackIcNS_5dequeIcNS1_IcEEEEEEEEE10deallocateB7v160006ERS7_PS6_m, symObjAddr: 0x5F6C, symBinAddr: 0x100007A00, symSize: 0x34 }
  - { offsetInCU: 0x1A084, offset: 0x1A084, size: 0x8, addend: 0x0, symName: __ZNSt3__116allocator_traitsINS_9allocatorINS_5stackIcNS_5dequeIcNS1_IcEEEEEEEEE10deallocateB7v160006ERS7_PS6_m, symObjAddr: 0x5F6C, symBinAddr: 0x100007A00, symSize: 0x34 }
  - { offsetInCU: 0x1A08C, offset: 0x1A08C, size: 0x8, addend: 0x0, symName: __ZNKSt3__114__split_bufferINS_5stackIcNS_5dequeIcNS_9allocatorIcEEEEEERNS3_IS6_EEE8capacityB7v160006Ev, symObjAddr: 0x5FA0, symBinAddr: 0x100007A34, symSize: 0x40 }
  - { offsetInCU: 0x1A0CA, offset: 0x1A0CA, size: 0x8, addend: 0x0, symName: __ZNKSt3__114__split_bufferINS_5stackIcNS_5dequeIcNS_9allocatorIcEEEEEERNS3_IS6_EEE8capacityB7v160006Ev, symObjAddr: 0x5FA0, symBinAddr: 0x100007A34, symSize: 0x40 }
  - { offsetInCU: 0x1A0D2, offset: 0x1A0D2, size: 0x8, addend: 0x0, symName: __ZNSt3__114__split_bufferINS_5stackIcNS_5dequeIcNS_9allocatorIcEEEEEERNS3_IS6_EEE17__destruct_at_endB7v160006EPS6_, symObjAddr: 0x5FE0, symBinAddr: 0x100007A74, symSize: 0x2C }
  - { offsetInCU: 0x1A0F5, offset: 0x1A0F5, size: 0x8, addend: 0x0, symName: __ZNSt3__114__split_bufferINS_5stackIcNS_5dequeIcNS_9allocatorIcEEEEEERNS3_IS6_EEE17__destruct_at_endB7v160006EPS6_, symObjAddr: 0x5FE0, symBinAddr: 0x100007A74, symSize: 0x2C }
  - { offsetInCU: 0x1A0FD, offset: 0x1A0FD, size: 0x8, addend: 0x0, symName: __ZNSt3__114__split_bufferINS_5stackIcNS_5dequeIcNS_9allocatorIcEEEEEERNS3_IS6_EEE17__destruct_at_endB7v160006EPS6_NS_17integral_constantIbLb0EEE, symObjAddr: 0x600C, symBinAddr: 0x100007AA0, symSize: 0x80 }
  - { offsetInCU: 0x1A12E, offset: 0x1A12E, size: 0x8, addend: 0x0, symName: __ZNSt3__114__split_bufferINS_5stackIcNS_5dequeIcNS_9allocatorIcEEEEEERNS3_IS6_EEE17__destruct_at_endB7v160006EPS6_NS_17integral_constantIbLb0EEE, symObjAddr: 0x600C, symBinAddr: 0x100007AA0, symSize: 0x80 }
  - { offsetInCU: 0x1A136, offset: 0x1A136, size: 0x8, addend: 0x0, symName: __ZNSt3__19allocatorINS_5stackIcNS_5dequeIcNS0_IcEEEEEEE10deallocateB7v160006EPS5_m, symObjAddr: 0x608C, symBinAddr: 0x100007B20, symSize: 0x44 }
  - { offsetInCU: 0x1A173, offset: 0x1A173, size: 0x8, addend: 0x0, symName: __ZNSt3__19allocatorINS_5stackIcNS_5dequeIcNS0_IcEEEEEEE10deallocateB7v160006EPS5_m, symObjAddr: 0x608C, symBinAddr: 0x100007B20, symSize: 0x44 }
  - { offsetInCU: 0x1A17B, offset: 0x1A17B, size: 0x8, addend: 0x0, symName: __ZNKSt3__114__split_bufferINS_5stackIcNS_5dequeIcNS_9allocatorIcEEEEEERNS3_IS6_EEE9__end_capB7v160006Ev, symObjAddr: 0x60D0, symBinAddr: 0x100007B64, symSize: 0x28 }
  - { offsetInCU: 0x1A1BA, offset: 0x1A1BA, size: 0x8, addend: 0x0, symName: __ZNKSt3__114__split_bufferINS_5stackIcNS_5dequeIcNS_9allocatorIcEEEEEERNS3_IS6_EEE9__end_capB7v160006Ev, symObjAddr: 0x60D0, symBinAddr: 0x100007B64, symSize: 0x28 }
  - { offsetInCU: 0x1A1C2, offset: 0x1A1C2, size: 0x8, addend: 0x0, symName: __ZNKSt3__117__compressed_pairIPNS_5stackIcNS_5dequeIcNS_9allocatorIcEEEEEERNS3_IS6_EEE5firstB7v160006Ev, symObjAddr: 0x60F8, symBinAddr: 0x100007B8C, symSize: 0x24 }
  - { offsetInCU: 0x1A1E5, offset: 0x1A1E5, size: 0x8, addend: 0x0, symName: __ZNKSt3__117__compressed_pairIPNS_5stackIcNS_5dequeIcNS_9allocatorIcEEEEEERNS3_IS6_EEE5firstB7v160006Ev, symObjAddr: 0x60F8, symBinAddr: 0x100007B8C, symSize: 0x24 }
  - { offsetInCU: 0x1A1ED, offset: 0x1A1ED, size: 0x8, addend: 0x0, symName: __ZNSt3__16vectorINS_12basic_stringIcNS_11char_traitsIcEENS_9allocatorIcEEEENS4_IS6_EEEC2B7v160006Ev, symObjAddr: 0x611C, symBinAddr: 0x100007BB0, symSize: 0x58 }
  - { offsetInCU: 0x1A210, offset: 0x1A210, size: 0x8, addend: 0x0, symName: __ZNSt3__16vectorINS_12basic_stringIcNS_11char_traitsIcEENS_9allocatorIcEEEENS4_IS6_EEEC2B7v160006Ev, symObjAddr: 0x611C, symBinAddr: 0x100007BB0, symSize: 0x58 }
  - { offsetInCU: 0x1A218, offset: 0x1A218, size: 0x8, addend: 0x0, symName: __ZNSt3__117__compressed_pairIPNS_12basic_stringIcNS_11char_traitsIcEENS_9allocatorIcEEEENS4_IS6_EEEC1B7v160006IDnNS_18__default_init_tagEEEOT_OT0_, symObjAddr: 0x6174, symBinAddr: 0x100007C08, symSize: 0x3C }
  - { offsetInCU: 0x1A23F, offset: 0x1A23F, size: 0x8, addend: 0x0, symName: __ZNSt3__117__compressed_pairIPNS_12basic_stringIcNS_11char_traitsIcEENS_9allocatorIcEEEENS4_IS6_EEEC1B7v160006IDnNS_18__default_init_tagEEEOT_OT0_, symObjAddr: 0x6174, symBinAddr: 0x100007C08, symSize: 0x3C }
  - { offsetInCU: 0x1A247, offset: 0x1A247, size: 0x8, addend: 0x0, symName: __ZNSt3__119__debug_db_insert_cB7v160006INS_6vectorINS_12basic_stringIcNS_11char_traitsIcEENS_9allocatorIcEEEENS5_IS7_EEEEEEvPT_, symObjAddr: 0x61B0, symBinAddr: 0x100007C44, symSize: 0x10 }
  - { offsetInCU: 0x1A29C, offset: 0x1A29C, size: 0x8, addend: 0x0, symName: __ZNSt3__117__compressed_pairIPNS_12basic_stringIcNS_11char_traitsIcEENS_9allocatorIcEEEENS4_IS6_EEEC2B7v160006IDnNS_18__default_init_tagEEEOT_OT0_, symObjAddr: 0x61C0, symBinAddr: 0x100007C54, symSize: 0x40 }
  - { offsetInCU: 0x1A2A4, offset: 0x1A2A4, size: 0x8, addend: 0x0, symName: __ZNSt3__122__compressed_pair_elemINS_9allocatorINS_12basic_stringIcNS_11char_traitsIcEENS1_IcEEEEEELi1ELb1EEC2B7v160006ENS_18__default_init_tagE, symObjAddr: 0x6200, symBinAddr: 0x100007C94, symSize: 0x2C }
  - { offsetInCU: 0x1A2F9, offset: 0x1A2F9, size: 0x8, addend: 0x0, symName: __ZNSt3__122__compressed_pair_elemINS_9allocatorINS_12basic_stringIcNS_11char_traitsIcEENS1_IcEEEEEELi1ELb1EEC2B7v160006ENS_18__default_init_tagE, symObjAddr: 0x6200, symBinAddr: 0x100007C94, symSize: 0x2C }
  - { offsetInCU: 0x1A301, offset: 0x1A301, size: 0x8, addend: 0x0, symName: __ZNSt3__19allocatorINS_12basic_stringIcNS_11char_traitsIcEENS0_IcEEEEEC2B7v160006Ev, symObjAddr: 0x622C, symBinAddr: 0x100007CC0, symSize: 0x2C }
  - { offsetInCU: 0x1A332, offset: 0x1A332, size: 0x8, addend: 0x0, symName: __ZNSt3__19allocatorINS_12basic_stringIcNS_11char_traitsIcEENS0_IcEEEEEC2B7v160006Ev, symObjAddr: 0x622C, symBinAddr: 0x100007CC0, symSize: 0x2C }
  - { offsetInCU: 0x1A33A, offset: 0x1A33A, size: 0x8, addend: 0x0, symName: __ZNSt3__116__non_trivial_ifILb1ENS_9allocatorINS_12basic_stringIcNS_11char_traitsIcEENS1_IcEEEEEEEC2B7v160006Ev, symObjAddr: 0x6258, symBinAddr: 0x100007CEC, symSize: 0x14 }
  - { offsetInCU: 0x1A361, offset: 0x1A361, size: 0x8, addend: 0x0, symName: __ZNSt3__116__non_trivial_ifILb1ENS_9allocatorINS_12basic_stringIcNS_11char_traitsIcEENS1_IcEEEEEEEC2B7v160006Ev, symObjAddr: 0x6258, symBinAddr: 0x100007CEC, symSize: 0x14 }
  - { offsetInCU: 0x1A369, offset: 0x1A369, size: 0x8, addend: 0x0, symName: __ZNSt3__16vectorINS_12basic_stringIcNS_11char_traitsIcEENS_9allocatorIcEEEENS4_IS6_EEED2B7v160006Ev, symObjAddr: 0x626C, symBinAddr: 0x100007D00, symSize: 0x44 }
  - { offsetInCU: 0x1A391, offset: 0x1A391, size: 0x8, addend: 0x0, symName: __ZNSt3__16vectorINS_12basic_stringIcNS_11char_traitsIcEENS_9allocatorIcEEEENS4_IS6_EEED2B7v160006Ev, symObjAddr: 0x626C, symBinAddr: 0x100007D00, symSize: 0x44 }
  - { offsetInCU: 0x1A399, offset: 0x1A399, size: 0x8, addend: 0x0, symName: __ZNSt3__16vectorINS_12basic_stringIcNS_11char_traitsIcEENS_9allocatorIcEEEENS4_IS6_EEE16__destroy_vectorC1ERS8_, symObjAddr: 0x62B0, symBinAddr: 0x100007D44, symSize: 0x34 }
  - { offsetInCU: 0x1A3C0, offset: 0x1A3C0, size: 0x8, addend: 0x0, symName: __ZNSt3__16vectorINS_12basic_stringIcNS_11char_traitsIcEENS_9allocatorIcEEEENS4_IS6_EEE16__destroy_vectorC1ERS8_, symObjAddr: 0x62B0, symBinAddr: 0x100007D44, symSize: 0x34 }
  - { offsetInCU: 0x1A3C8, offset: 0x1A3C8, size: 0x8, addend: 0x0, symName: __ZNSt3__16vectorINS_12basic_stringIcNS_11char_traitsIcEENS_9allocatorIcEEEENS4_IS6_EEE16__destroy_vectorclB7v160006Ev, symObjAddr: 0x62E4, symBinAddr: 0x100007D78, symSize: 0x9C }
  - { offsetInCU: 0x1A3FE, offset: 0x1A3FE, size: 0x8, addend: 0x0, symName: __ZNSt3__16vectorINS_12basic_stringIcNS_11char_traitsIcEENS_9allocatorIcEEEENS4_IS6_EEE16__destroy_vectorclB7v160006Ev, symObjAddr: 0x62E4, symBinAddr: 0x100007D78, symSize: 0x9C }
  - { offsetInCU: 0x1A406, offset: 0x1A406, size: 0x8, addend: 0x0, symName: __ZNSt3__16vectorINS_12basic_stringIcNS_11char_traitsIcEENS_9allocatorIcEEEENS4_IS6_EEE16__destroy_vectorC2ERS8_, symObjAddr: 0x6380, symBinAddr: 0x100007E14, symSize: 0x20 }
  - { offsetInCU: 0x1A429, offset: 0x1A429, size: 0x8, addend: 0x0, symName: __ZNSt3__16vectorINS_12basic_stringIcNS_11char_traitsIcEENS_9allocatorIcEEEENS4_IS6_EEE16__destroy_vectorC2ERS8_, symObjAddr: 0x6380, symBinAddr: 0x100007E14, symSize: 0x20 }
  - { offsetInCU: 0x1A431, offset: 0x1A431, size: 0x8, addend: 0x0, symName: __ZNSt3__118__debug_db_erase_cB7v160006INS_6vectorINS_12basic_stringIcNS_11char_traitsIcEENS_9allocatorIcEEEENS5_IS7_EEEEEEvPT_, symObjAddr: 0x63A0, symBinAddr: 0x100007E34, symSize: 0x10 }
  - { offsetInCU: 0x1A468, offset: 0x1A468, size: 0x8, addend: 0x0, symName: __ZNSt3__16vectorINS_12basic_stringIcNS_11char_traitsIcEENS_9allocatorIcEEEENS4_IS6_EEE7__clearB7v160006Ev, symObjAddr: 0x63B0, symBinAddr: 0x100007E44, symSize: 0x28 }
  - { offsetInCU: 0x1A470, offset: 0x1A470, size: 0x8, addend: 0x0, symName: __ZNSt3__16vectorINS_5stackIcNS_5dequeIcNS_9allocatorIcEEEEEENS3_IS6_EEED2B7v160006Ev, symObjAddr: 0x63D8, symBinAddr: 0x100007E6C, symSize: 0x44 }
  - { offsetInCU: 0x1A493, offset: 0x1A493, size: 0x8, addend: 0x0, symName: __ZNSt3__16vectorINS_5stackIcNS_5dequeIcNS_9allocatorIcEEEEEENS3_IS6_EEED2B7v160006Ev, symObjAddr: 0x63D8, symBinAddr: 0x100007E6C, symSize: 0x44 }
  - { offsetInCU: 0x1A49B, offset: 0x1A49B, size: 0x8, addend: 0x0, symName: __ZNSt3__16vectorINS_5stackIcNS_5dequeIcNS_9allocatorIcEEEEEENS3_IS6_EEE16__destroy_vectorC1ERS8_, symObjAddr: 0x641C, symBinAddr: 0x100007EB0, symSize: 0x34 }
  - { offsetInCU: 0x1A4C2, offset: 0x1A4C2, size: 0x8, addend: 0x0, symName: __ZNSt3__16vectorINS_5stackIcNS_5dequeIcNS_9allocatorIcEEEEEENS3_IS6_EEE16__destroy_vectorC1ERS8_, symObjAddr: 0x641C, symBinAddr: 0x100007EB0, symSize: 0x34 }
  - { offsetInCU: 0x1A4CA, offset: 0x1A4CA, size: 0x8, addend: 0x0, symName: __ZNSt3__16vectorINS_5stackIcNS_5dequeIcNS_9allocatorIcEEEEEENS3_IS6_EEE16__destroy_vectorclB7v160006Ev, symObjAddr: 0x6450, symBinAddr: 0x100007EE4, symSize: 0x9C }
  - { offsetInCU: 0x1A500, offset: 0x1A500, size: 0x8, addend: 0x0, symName: __ZNSt3__16vectorINS_5stackIcNS_5dequeIcNS_9allocatorIcEEEEEENS3_IS6_EEE16__destroy_vectorclB7v160006Ev, symObjAddr: 0x6450, symBinAddr: 0x100007EE4, symSize: 0x9C }
  - { offsetInCU: 0x1A508, offset: 0x1A508, size: 0x8, addend: 0x0, symName: __ZNSt3__16vectorINS_5stackIcNS_5dequeIcNS_9allocatorIcEEEEEENS3_IS6_EEE16__destroy_vectorC2ERS8_, symObjAddr: 0x64EC, symBinAddr: 0x100007F80, symSize: 0x20 }
  - { offsetInCU: 0x1A52B, offset: 0x1A52B, size: 0x8, addend: 0x0, symName: __ZNSt3__16vectorINS_5stackIcNS_5dequeIcNS_9allocatorIcEEEEEENS3_IS6_EEE16__destroy_vectorC2ERS8_, symObjAddr: 0x64EC, symBinAddr: 0x100007F80, symSize: 0x20 }
  - { offsetInCU: 0x1A533, offset: 0x1A533, size: 0x8, addend: 0x0, symName: __ZNSt3__118__debug_db_erase_cB7v160006INS_6vectorINS_5stackIcNS_5dequeIcNS_9allocatorIcEEEEEENS4_IS7_EEEEEEvPT_, symObjAddr: 0x650C, symBinAddr: 0x100007FA0, symSize: 0x10 }
  - { offsetInCU: 0x1A56A, offset: 0x1A56A, size: 0x8, addend: 0x0, symName: __ZNSt3__16vectorINS_5stackIcNS_5dequeIcNS_9allocatorIcEEEEEENS3_IS6_EEE7__clearB7v160006Ev, symObjAddr: 0x651C, symBinAddr: 0x100007FB0, symSize: 0x28 }
  - { offsetInCU: 0x1A572, offset: 0x1A572, size: 0x8, addend: 0x0, symName: __ZNSt3__16vectorINS_5stackIcNS_5dequeIcNS_9allocatorIcEEEEEENS3_IS6_EEE22__base_destruct_at_endB7v160006EPS6_, symObjAddr: 0x6544, symBinAddr: 0x100007FD8, symSize: 0x8C }
  - { offsetInCU: 0x1A595, offset: 0x1A595, size: 0x8, addend: 0x0, symName: __ZNSt3__16vectorINS_5stackIcNS_5dequeIcNS_9allocatorIcEEEEEENS3_IS6_EEE22__base_destruct_at_endB7v160006EPS6_, symObjAddr: 0x6544, symBinAddr: 0x100007FD8, symSize: 0x8C }
  - { offsetInCU: 0x1A59D, offset: 0x1A59D, size: 0x8, addend: 0x0, symName: __ZNSt3__15stackIcNS_5dequeIcNS_9allocatorIcEEEEEC2B7v160006ERKS5_, symObjAddr: 0x65D0, symBinAddr: 0x100008064, symSize: 0x34 }
  - { offsetInCU: 0x1A5DE, offset: 0x1A5DE, size: 0x8, addend: 0x0, symName: __ZNSt3__15stackIcNS_5dequeIcNS_9allocatorIcEEEEEC2B7v160006ERKS5_, symObjAddr: 0x65D0, symBinAddr: 0x100008064, symSize: 0x34 }
  - { offsetInCU: 0x1A5E6, offset: 0x1A5E6, size: 0x8, addend: 0x0, symName: __ZNSt3__15dequeIcNS_9allocatorIcEEEC1ERKS3_, symObjAddr: 0x6604, symBinAddr: 0x100008098, symSize: 0x34 }
  - { offsetInCU: 0x1A61B, offset: 0x1A61B, size: 0x8, addend: 0x0, symName: __ZNSt3__15dequeIcNS_9allocatorIcEEEC1ERKS3_, symObjAddr: 0x6604, symBinAddr: 0x100008098, symSize: 0x34 }
  - { offsetInCU: 0x1A623, offset: 0x1A623, size: 0x8, addend: 0x0, symName: __ZNSt3__15dequeIcNS_9allocatorIcEEEC2ERKS3_, symObjAddr: 0x6638, symBinAddr: 0x1000080CC, symSize: 0xEC }
  - { offsetInCU: 0x1A65B, offset: 0x1A65B, size: 0x8, addend: 0x0, symName: __ZNSt3__15dequeIcNS_9allocatorIcEEEC2ERKS3_, symObjAddr: 0x6638, symBinAddr: 0x1000080CC, symSize: 0xEC }
  - { offsetInCU: 0x1A663, offset: 0x1A663, size: 0x8, addend: 0x0, symName: __ZNSt3__116allocator_traitsINS_9allocatorIcEEE37select_on_container_copy_constructionB7v160006IS2_vvEES2_RKS2_, symObjAddr: 0x6724, symBinAddr: 0x1000081B8, symSize: 0x10 }
  - { offsetInCU: 0x1A6A6, offset: 0x1A6A6, size: 0x8, addend: 0x0, symName: __ZNSt3__116allocator_traitsINS_9allocatorIcEEE37select_on_container_copy_constructionB7v160006IS2_vvEES2_RKS2_, symObjAddr: 0x6724, symBinAddr: 0x1000081B8, symSize: 0x10 }
  - { offsetInCU: 0x1A6AE, offset: 0x1A6AE, size: 0x8, addend: 0x0, symName: __ZNKSt3__15dequeIcNS_9allocatorIcEEE7__allocB7v160006Ev, symObjAddr: 0x6734, symBinAddr: 0x1000081C8, symSize: 0x28 }
  - { offsetInCU: 0x1A6DA, offset: 0x1A6DA, size: 0x8, addend: 0x0, symName: __ZNKSt3__15dequeIcNS_9allocatorIcEEE7__allocB7v160006Ev, symObjAddr: 0x6734, symBinAddr: 0x1000081C8, symSize: 0x28 }
  - { offsetInCU: 0x1A6E2, offset: 0x1A6E2, size: 0x8, addend: 0x0, symName: __ZNSt3__19allocatorIPcEC1B7v160006IcEERKNS0_IT_EE, symObjAddr: 0x675C, symBinAddr: 0x1000081F0, symSize: 0x34 }
  - { offsetInCU: 0x1A705, offset: 0x1A705, size: 0x8, addend: 0x0, symName: __ZNSt3__19allocatorIPcEC1B7v160006IcEERKNS0_IT_EE, symObjAddr: 0x675C, symBinAddr: 0x1000081F0, symSize: 0x34 }
  - { offsetInCU: 0x1A70D, offset: 0x1A70D, size: 0x8, addend: 0x0, symName: __ZNSt3__114__split_bufferIPcNS_9allocatorIS1_EEEC1ERKS3_, symObjAddr: 0x6790, symBinAddr: 0x100008224, symSize: 0x34 }
  - { offsetInCU: 0x1A747, offset: 0x1A747, size: 0x8, addend: 0x0, symName: __ZNSt3__114__split_bufferIPcNS_9allocatorIS1_EEEC1ERKS3_, symObjAddr: 0x6790, symBinAddr: 0x100008224, symSize: 0x34 }
  - { offsetInCU: 0x1A74F, offset: 0x1A74F, size: 0x8, addend: 0x0, symName: __ZNSt3__117__compressed_pairImNS_9allocatorIcEEEC1B7v160006IiRNS1_IPcEEEEOT_OT0_, symObjAddr: 0x67C4, symBinAddr: 0x100008258, symSize: 0x3C }
  - { offsetInCU: 0x1A78C, offset: 0x1A78C, size: 0x8, addend: 0x0, symName: __ZNSt3__117__compressed_pairImNS_9allocatorIcEEEC1B7v160006IiRNS1_IPcEEEEOT_OT0_, symObjAddr: 0x67C4, symBinAddr: 0x100008258, symSize: 0x3C }
  - { offsetInCU: 0x1A794, offset: 0x1A794, size: 0x8, addend: 0x0, symName: __ZNSt3__15dequeIcNS_9allocatorIcEEE8__appendINS_16__deque_iteratorIcPKcRS6_PKS7_lLl4096EEEEEvT_SC_PNS_9enable_ifIXsr27__is_cpp17_forward_iteratorISC_EE5valueEvE4typeE, symObjAddr: 0x6800, symBinAddr: 0x100008294, symSize: 0x248 }
  - { offsetInCU: 0x1A7EF, offset: 0x1A7EF, size: 0x8, addend: 0x0, symName: __ZNSt3__15dequeIcNS_9allocatorIcEEE8__appendINS_16__deque_iteratorIcPKcRS6_PKS7_lLl4096EEEEEvT_SC_PNS_9enable_ifIXsr27__is_cpp17_forward_iteratorISC_EE5valueEvE4typeE, symObjAddr: 0x6800, symBinAddr: 0x100008294, symSize: 0x248 }
  - { offsetInCU: 0x1A7F7, offset: 0x1A7F7, size: 0x8, addend: 0x0, symName: __ZNKSt3__15dequeIcNS_9allocatorIcEEE5beginB7v160006Ev, symObjAddr: 0x6A48, symBinAddr: 0x1000084DC, symSize: 0xA8 }
  - { offsetInCU: 0x1A8EA, offset: 0x1A8EA, size: 0x8, addend: 0x0, symName: __ZNKSt3__15dequeIcNS_9allocatorIcEEE5beginB7v160006Ev, symObjAddr: 0x6A48, symBinAddr: 0x1000084DC, symSize: 0xA8 }
  - { offsetInCU: 0x1A8F2, offset: 0x1A8F2, size: 0x8, addend: 0x0, symName: __ZNKSt3__15dequeIcNS_9allocatorIcEEE3endB7v160006Ev, symObjAddr: 0x6AF0, symBinAddr: 0x100008584, symSize: 0xBC }
  - { offsetInCU: 0x1A924, offset: 0x1A924, size: 0x8, addend: 0x0, symName: __ZNKSt3__15dequeIcNS_9allocatorIcEEE3endB7v160006Ev, symObjAddr: 0x6AF0, symBinAddr: 0x100008584, symSize: 0xBC }
  - { offsetInCU: 0x1A92C, offset: 0x1A92C, size: 0x8, addend: 0x0, symName: __ZNKSt3__117__compressed_pairImNS_9allocatorIcEEE6secondB7v160006Ev, symObjAddr: 0x6BAC, symBinAddr: 0x100008640, symSize: 0x24 }
  - { offsetInCU: 0x1A96D, offset: 0x1A96D, size: 0x8, addend: 0x0, symName: __ZNKSt3__117__compressed_pairImNS_9allocatorIcEEE6secondB7v160006Ev, symObjAddr: 0x6BAC, symBinAddr: 0x100008640, symSize: 0x24 }
  - { offsetInCU: 0x1A975, offset: 0x1A975, size: 0x8, addend: 0x0, symName: __ZNKSt3__122__compressed_pair_elemINS_9allocatorIcEELi1ELb1EE5__getB7v160006Ev, symObjAddr: 0x6BD0, symBinAddr: 0x100008664, symSize: 0x14 }
  - { offsetInCU: 0x1A998, offset: 0x1A998, size: 0x8, addend: 0x0, symName: __ZNKSt3__122__compressed_pair_elemINS_9allocatorIcEELi1ELb1EE5__getB7v160006Ev, symObjAddr: 0x6BD0, symBinAddr: 0x100008664, symSize: 0x14 }
  - { offsetInCU: 0x1A9A0, offset: 0x1A9A0, size: 0x8, addend: 0x0, symName: __ZNSt3__19allocatorIPcEC2B7v160006IcEERKNS0_IT_EE, symObjAddr: 0x6BE4, symBinAddr: 0x100008678, symSize: 0x30 }
  - { offsetInCU: 0x1A9C4, offset: 0x1A9C4, size: 0x8, addend: 0x0, symName: __ZNSt3__19allocatorIPcEC2B7v160006IcEERKNS0_IT_EE, symObjAddr: 0x6BE4, symBinAddr: 0x100008678, symSize: 0x30 }
  - { offsetInCU: 0x1A9CC, offset: 0x1A9CC, size: 0x8, addend: 0x0, symName: __ZNSt3__116__non_trivial_ifILb1ENS_9allocatorIPcEEEC2B7v160006Ev, symObjAddr: 0x6C14, symBinAddr: 0x1000086A8, symSize: 0x14 }
  - { offsetInCU: 0x1AA06, offset: 0x1AA06, size: 0x8, addend: 0x0, symName: __ZNSt3__116__non_trivial_ifILb1ENS_9allocatorIPcEEEC2B7v160006Ev, symObjAddr: 0x6C14, symBinAddr: 0x1000086A8, symSize: 0x14 }
  - { offsetInCU: 0x1AA0E, offset: 0x1AA0E, size: 0x8, addend: 0x0, symName: __ZNSt3__114__split_bufferIPcNS_9allocatorIS1_EEEC2ERKS3_, symObjAddr: 0x6C28, symBinAddr: 0x1000086BC, symSize: 0x4C }
  - { offsetInCU: 0x1AA36, offset: 0x1AA36, size: 0x8, addend: 0x0, symName: __ZNSt3__114__split_bufferIPcNS_9allocatorIS1_EEEC2ERKS3_, symObjAddr: 0x6C28, symBinAddr: 0x1000086BC, symSize: 0x4C }
  - { offsetInCU: 0x1AA3E, offset: 0x1AA3E, size: 0x8, addend: 0x0, symName: __ZNSt3__117__compressed_pairIPPcNS_9allocatorIS1_EEEC1B7v160006IDnRKS4_EEOT_OT0_, symObjAddr: 0x6C74, symBinAddr: 0x100008708, symSize: 0x3C }
  - { offsetInCU: 0x1AA75, offset: 0x1AA75, size: 0x8, addend: 0x0, symName: __ZNSt3__117__compressed_pairIPPcNS_9allocatorIS1_EEEC1B7v160006IDnRKS4_EEOT_OT0_, symObjAddr: 0x6C74, symBinAddr: 0x100008708, symSize: 0x3C }
  - { offsetInCU: 0x1AA7D, offset: 0x1AA7D, size: 0x8, addend: 0x0, symName: __ZNSt3__117__compressed_pairIPPcNS_9allocatorIS1_EEEC2B7v160006IDnRKS4_EEOT_OT0_, symObjAddr: 0x6CB0, symBinAddr: 0x100008744, symSize: 0x44 }
  - { offsetInCU: 0x1AAD2, offset: 0x1AAD2, size: 0x8, addend: 0x0, symName: __ZNSt3__117__compressed_pairIPPcNS_9allocatorIS1_EEEC2B7v160006IDnRKS4_EEOT_OT0_, symObjAddr: 0x6CB0, symBinAddr: 0x100008744, symSize: 0x44 }
  - { offsetInCU: 0x1AADA, offset: 0x1AADA, size: 0x8, addend: 0x0, symName: __ZNSt3__122__compressed_pair_elemIPPcLi0ELb0EEC2B7v160006IDnvEEOT_, symObjAddr: 0x6CF4, symBinAddr: 0x100008788, symSize: 0x1C }
  - { offsetInCU: 0x1AB2F, offset: 0x1AB2F, size: 0x8, addend: 0x0, symName: __ZNSt3__122__compressed_pair_elemIPPcLi0ELb0EEC2B7v160006IDnvEEOT_, symObjAddr: 0x6CF4, symBinAddr: 0x100008788, symSize: 0x1C }
  - { offsetInCU: 0x1AB37, offset: 0x1AB37, size: 0x8, addend: 0x0, symName: __ZNSt3__122__compressed_pair_elemINS_9allocatorIPcEELi1ELb1EEC2B7v160006IRKS3_vEEOT_, symObjAddr: 0x6D10, symBinAddr: 0x1000087A4, symSize: 0x18 }
  - { offsetInCU: 0x1AB77, offset: 0x1AB77, size: 0x8, addend: 0x0, symName: __ZNSt3__122__compressed_pair_elemINS_9allocatorIPcEELi1ELb1EEC2B7v160006IRKS3_vEEOT_, symObjAddr: 0x6D10, symBinAddr: 0x1000087A4, symSize: 0x18 }
  - { offsetInCU: 0x1AB7F, offset: 0x1AB7F, size: 0x8, addend: 0x0, symName: __ZNSt3__117__compressed_pairImNS_9allocatorIcEEEC2B7v160006IiRNS1_IPcEEEEOT_OT0_, symObjAddr: 0x6D28, symBinAddr: 0x1000087BC, symSize: 0x44 }
  - { offsetInCU: 0x1ABBF, offset: 0x1ABBF, size: 0x8, addend: 0x0, symName: __ZNSt3__117__compressed_pairImNS_9allocatorIcEEEC2B7v160006IiRNS1_IPcEEEEOT_OT0_, symObjAddr: 0x6D28, symBinAddr: 0x1000087BC, symSize: 0x44 }
  - { offsetInCU: 0x1ABC7, offset: 0x1ABC7, size: 0x8, addend: 0x0, symName: __ZNSt3__122__compressed_pair_elemImLi0ELb0EEC2B7v160006IivEEOT_, symObjAddr: 0x6D6C, symBinAddr: 0x100008800, symSize: 0x24 }
  - { offsetInCU: 0x1AC1C, offset: 0x1AC1C, size: 0x8, addend: 0x0, symName: __ZNSt3__122__compressed_pair_elemImLi0ELb0EEC2B7v160006IivEEOT_, symObjAddr: 0x6D6C, symBinAddr: 0x100008800, symSize: 0x24 }
  - { offsetInCU: 0x1AC24, offset: 0x1AC24, size: 0x8, addend: 0x0, symName: __ZNSt3__122__compressed_pair_elemINS_9allocatorIcEELi1ELb1EEC2B7v160006IRNS1_IPcEEvEEOT_, symObjAddr: 0x6D90, symBinAddr: 0x100008824, symSize: 0x34 }
  - { offsetInCU: 0x1AC64, offset: 0x1AC64, size: 0x8, addend: 0x0, symName: __ZNSt3__122__compressed_pair_elemINS_9allocatorIcEELi1ELb1EEC2B7v160006IRNS1_IPcEEvEEOT_, symObjAddr: 0x6D90, symBinAddr: 0x100008824, symSize: 0x34 }
  - { offsetInCU: 0x1AC6C, offset: 0x1AC6C, size: 0x8, addend: 0x0, symName: __ZNSt3__19allocatorIcEC2B7v160006IPcEERKNS0_IT_EE, symObjAddr: 0x6DC4, symBinAddr: 0x100008858, symSize: 0x30 }
  - { offsetInCU: 0x1ACAB, offset: 0x1ACAB, size: 0x8, addend: 0x0, symName: __ZNSt3__19allocatorIcEC2B7v160006IPcEERKNS0_IT_EE, symObjAddr: 0x6DC4, symBinAddr: 0x100008858, symSize: 0x30 }
  - { offsetInCU: 0x1ACB3, offset: 0x1ACB3, size: 0x8, addend: 0x0, symName: __ZNSt3__116__non_trivial_ifILb1ENS_9allocatorIcEEEC2B7v160006Ev, symObjAddr: 0x6DF4, symBinAddr: 0x100008888, symSize: 0x14 }
  - { offsetInCU: 0x1ACED, offset: 0x1ACED, size: 0x8, addend: 0x0, symName: __ZNSt3__116__non_trivial_ifILb1ENS_9allocatorIcEEEC2B7v160006Ev, symObjAddr: 0x6DF4, symBinAddr: 0x100008888, symSize: 0x14 }
  - { offsetInCU: 0x1ACF5, offset: 0x1ACF5, size: 0x8, addend: 0x0, symName: __ZNSt3__18distanceB7v160006INS_16__deque_iteratorIcPKcRS2_PKS3_lLl4096EEEEENS_15iterator_traitsIT_E15difference_typeES9_S9_, symObjAddr: 0x6E08, symBinAddr: 0x10000889C, symSize: 0x4C }
  - { offsetInCU: 0x1AD1D, offset: 0x1AD1D, size: 0x8, addend: 0x0, symName: __ZNKSt3__15dequeIcNS_9allocatorIcEEE12__back_spareB7v160006Ev, symObjAddr: 0x6E54, symBinAddr: 0x1000088E8, symSize: 0x54 }
  - { offsetInCU: 0x1AD25, offset: 0x1AD25, size: 0x8, addend: 0x0, symName: __ZNSt3__15dequeIcNS_9allocatorIcEEE19__add_back_capacityEm, symObjAddr: 0x6EA8, symBinAddr: 0x10000893C, symSize: 0x5B8 }
  - { offsetInCU: 0x1AD48, offset: 0x1AD48, size: 0x8, addend: 0x0, symName: __ZNSt3__15dequeIcNS_9allocatorIcEEE19__add_back_capacityEm, symObjAddr: 0x6EA8, symBinAddr: 0x10000893C, symSize: 0x5B8 }
  - { offsetInCU: 0x1AD50, offset: 0x1AD50, size: 0x8, addend: 0x0, symName: __ZNKSt3__116__deque_iteratorIcPcRcPS1_lLl4096EEplB7v160006El, symObjAddr: 0x7460, symBinAddr: 0x100008EF4, symSize: 0x40 }
  - { offsetInCU: 0x1AE5E, offset: 0x1AE5E, size: 0x8, addend: 0x0, symName: __ZNKSt3__116__deque_iteratorIcPcRcPS1_lLl4096EEplB7v160006El, symObjAddr: 0x7460, symBinAddr: 0x100008EF4, symSize: 0x40 }
  - { offsetInCU: 0x1AE66, offset: 0x1AE66, size: 0x8, addend: 0x0, symName: __ZNSt3__15dequeIcNS_9allocatorIcEEE13__deque_rangeC1B7v160006ENS_16__deque_iteratorIcPcRcPS6_lLl4096EEES9_, symObjAddr: 0x74A0, symBinAddr: 0x100008F34, symSize: 0x4C }
  - { offsetInCU: 0x1AECE, offset: 0x1AECE, size: 0x8, addend: 0x0, symName: __ZNSt3__15dequeIcNS_9allocatorIcEEE13__deque_rangeC1B7v160006ENS_16__deque_iteratorIcPcRcPS6_lLl4096EEES9_, symObjAddr: 0x74A0, symBinAddr: 0x100008F34, symSize: 0x4C }
  - { offsetInCU: 0x1AED6, offset: 0x1AED6, size: 0x8, addend: 0x0, symName: __ZNKSt3__15dequeIcNS_9allocatorIcEEE13__deque_range5beginB7v160006Ev, symObjAddr: 0x74EC, symBinAddr: 0x100008F80, symSize: 0x24 }
  - { offsetInCU: 0x1AF1B, offset: 0x1AF1B, size: 0x8, addend: 0x0, symName: __ZNKSt3__15dequeIcNS_9allocatorIcEEE13__deque_range5beginB7v160006Ev, symObjAddr: 0x74EC, symBinAddr: 0x100008F80, symSize: 0x24 }
  - { offsetInCU: 0x1AF23, offset: 0x1AF23, size: 0x8, addend: 0x0, symName: __ZNKSt3__15dequeIcNS_9allocatorIcEEE13__deque_range3endB7v160006Ev, symObjAddr: 0x7510, symBinAddr: 0x100008FA4, symSize: 0x50 }
  - { offsetInCU: 0x1AF47, offset: 0x1AF47, size: 0x8, addend: 0x0, symName: __ZNKSt3__15dequeIcNS_9allocatorIcEEE13__deque_range3endB7v160006Ev, symObjAddr: 0x7510, symBinAddr: 0x100008FA4, symSize: 0x50 }
  - { offsetInCU: 0x1AF4F, offset: 0x1AF4F, size: 0x8, addend: 0x0, symName: __ZNSt3__1neB7v160006ERKNS_5dequeIcNS_9allocatorIcEEE13__deque_rangeES6_, symObjAddr: 0x7560, symBinAddr: 0x100008FF4, symSize: 0x34 }
  - { offsetInCU: 0x1AF72, offset: 0x1AF72, size: 0x8, addend: 0x0, symName: __ZNKSt3__15dequeIcNS_9allocatorIcEEE13__deque_rangedeB7v160006Ev, symObjAddr: 0x7594, symBinAddr: 0x100009028, symSize: 0x7C }
  - { offsetInCU: 0x1AF7A, offset: 0x1AF7A, size: 0x8, addend: 0x0, symName: __ZNSt3__15dequeIcNS_9allocatorIcEEE21_ConstructTransactionC1B7v160006EPS3_RNS3_19__deque_block_rangeE, symObjAddr: 0x7610, symBinAddr: 0x1000090A4, symSize: 0x3C }
  - { offsetInCU: 0x1AFB4, offset: 0x1AFB4, size: 0x8, addend: 0x0, symName: __ZNSt3__15dequeIcNS_9allocatorIcEEE21_ConstructTransactionC1B7v160006EPS3_RNS3_19__deque_block_rangeE, symObjAddr: 0x7610, symBinAddr: 0x1000090A4, symSize: 0x3C }
  - { offsetInCU: 0x1AFBC, offset: 0x1AFBC, size: 0x8, addend: 0x0, symName: __ZNSt3__116allocator_traitsINS_9allocatorIcEEE9constructB7v160006IcJRKcEvvEEvRS2_PT_DpOT0_, symObjAddr: 0x764C, symBinAddr: 0x1000090E0, symSize: 0x30 }
  - { offsetInCU: 0x1B001, offset: 0x1B001, size: 0x8, addend: 0x0, symName: __ZNSt3__116allocator_traitsINS_9allocatorIcEEE9constructB7v160006IcJRKcEvvEEvRS2_PT_DpOT0_, symObjAddr: 0x764C, symBinAddr: 0x1000090E0, symSize: 0x30 }
  - { offsetInCU: 0x1B009, offset: 0x1B009, size: 0x8, addend: 0x0, symName: __ZNSt3__112__to_addressB7v160006IcEEPT_S2_, symObjAddr: 0x767C, symBinAddr: 0x100009110, symSize: 0x14 }
  - { offsetInCU: 0x1B05A, offset: 0x1B05A, size: 0x8, addend: 0x0, symName: __ZNKSt3__116__deque_iteratorIcPKcRS1_PKS2_lLl4096EEdeB7v160006Ev, symObjAddr: 0x7690, symBinAddr: 0x100009124, symSize: 0x18 }
  - { offsetInCU: 0x1B062, offset: 0x1B062, size: 0x8, addend: 0x0, symName: __ZNSt3__116__deque_iteratorIcPKcRS1_PKS2_lLl4096EEppB7v160006Ev, symObjAddr: 0x76A8, symBinAddr: 0x10000913C, symSize: 0x68 }
  - { offsetInCU: 0x1B086, offset: 0x1B086, size: 0x8, addend: 0x0, symName: __ZNSt3__116__deque_iteratorIcPKcRS1_PKS2_lLl4096EEppB7v160006Ev, symObjAddr: 0x76A8, symBinAddr: 0x10000913C, symSize: 0x68 }
  - { offsetInCU: 0x1B08E, offset: 0x1B08E, size: 0x8, addend: 0x0, symName: __ZNSt3__15dequeIcNS_9allocatorIcEEE21_ConstructTransactionD1B7v160006Ev, symObjAddr: 0x7710, symBinAddr: 0x1000091A4, symSize: 0x2C }
  - { offsetInCU: 0x1B0B2, offset: 0x1B0B2, size: 0x8, addend: 0x0, symName: __ZNSt3__15dequeIcNS_9allocatorIcEEE21_ConstructTransactionD1B7v160006Ev, symObjAddr: 0x7710, symBinAddr: 0x1000091A4, symSize: 0x2C }
  - { offsetInCU: 0x1B0BA, offset: 0x1B0BA, size: 0x8, addend: 0x0, symName: __ZNSt3__15dequeIcNS_9allocatorIcEEE13__deque_rangeppB7v160006Ev, symObjAddr: 0x773C, symBinAddr: 0x1000091D0, symSize: 0x64 }
  - { offsetInCU: 0x1B0E1, offset: 0x1B0E1, size: 0x8, addend: 0x0, symName: __ZNSt3__15dequeIcNS_9allocatorIcEEE13__deque_rangeppB7v160006Ev, symObjAddr: 0x773C, symBinAddr: 0x1000091D0, symSize: 0x64 }
  - { offsetInCU: 0x1B0E9, offset: 0x1B0E9, size: 0x8, addend: 0x0, symName: __ZNSt3__110__distanceB7v160006INS_16__deque_iteratorIcPKcRS2_PKS3_lLl4096EEEEENS_15iterator_traitsIT_E15difference_typeES9_S9_NS_26random_access_iterator_tagE, symObjAddr: 0x77A0, symBinAddr: 0x100009234, symSize: 0x38 }
  - { offsetInCU: 0x1B10D, offset: 0x1B10D, size: 0x8, addend: 0x0, symName: __ZNKSt3__15dequeIcNS_9allocatorIcEEE10__capacityB7v160006Ev, symObjAddr: 0x78D8, symBinAddr: 0x10000936C, symSize: 0x60 }
  - { offsetInCU: 0x1B115, offset: 0x1B115, size: 0x8, addend: 0x0, symName: __ZNSt3__15dequeIcNS_9allocatorIcEEE18__recommend_blocksB7v160006Em, symObjAddr: 0x7938, symBinAddr: 0x1000093CC, symSize: 0x40 }
  - { offsetInCU: 0x1B138, offset: 0x1B138, size: 0x8, addend: 0x0, symName: __ZNSt3__15dequeIcNS_9allocatorIcEEE18__recommend_blocksB7v160006Em, symObjAddr: 0x7938, symBinAddr: 0x1000093CC, symSize: 0x40 }
  - { offsetInCU: 0x1B140, offset: 0x1B140, size: 0x8, addend: 0x0, symName: __ZNKSt3__15dequeIcNS_9allocatorIcEEE13__front_spareB7v160006Ev, symObjAddr: 0x7978, symBinAddr: 0x10000940C, symSize: 0x18 }
  - { offsetInCU: 0x1B161, offset: 0x1B161, size: 0x8, addend: 0x0, symName: __ZNKSt3__15dequeIcNS_9allocatorIcEEE13__front_spareB7v160006Ev, symObjAddr: 0x7978, symBinAddr: 0x10000940C, symSize: 0x18 }
  - { offsetInCU: 0x1B169, offset: 0x1B169, size: 0x8, addend: 0x0, symName: __ZNSt3__114__split_bufferIPcNS_9allocatorIS1_EEE9push_backB7v160006ERKS1_, symObjAddr: 0x7990, symBinAddr: 0x100009424, symSize: 0x260 }
  - { offsetInCU: 0x1B18D, offset: 0x1B18D, size: 0x8, addend: 0x0, symName: __ZNSt3__114__split_bufferIPcNS_9allocatorIS1_EEE9push_backB7v160006ERKS1_, symObjAddr: 0x7990, symBinAddr: 0x100009424, symSize: 0x260 }
  - { offsetInCU: 0x1B195, offset: 0x1B195, size: 0x8, addend: 0x0, symName: __ZNKSt3__114__split_bufferIPcNS_9allocatorIS1_EEE12__back_spareB7v160006Ev, symObjAddr: 0x7BF0, symBinAddr: 0x100009684, symSize: 0x40 }
  - { offsetInCU: 0x1B20E, offset: 0x1B20E, size: 0x8, addend: 0x0, symName: __ZNKSt3__114__split_bufferIPcNS_9allocatorIS1_EEE12__back_spareB7v160006Ev, symObjAddr: 0x7BF0, symBinAddr: 0x100009684, symSize: 0x40 }
  - { offsetInCU: 0x1B216, offset: 0x1B216, size: 0x8, addend: 0x0, symName: __ZNSt3__114__split_bufferIPcNS_9allocatorIS1_EEE9push_backEOS1_, symObjAddr: 0x7C30, symBinAddr: 0x1000096C4, symSize: 0x260 }
  - { offsetInCU: 0x1B239, offset: 0x1B239, size: 0x8, addend: 0x0, symName: __ZNSt3__114__split_bufferIPcNS_9allocatorIS1_EEE9push_backEOS1_, symObjAddr: 0x7C30, symBinAddr: 0x1000096C4, symSize: 0x260 }
  - { offsetInCU: 0x1B241, offset: 0x1B241, size: 0x8, addend: 0x0, symName: __ZNSt3__116allocator_traitsINS_9allocatorIcEEE8allocateB7v160006ERS2_m, symObjAddr: 0x7E90, symBinAddr: 0x100009924, symSize: 0x2C }
  - { offsetInCU: 0x1B2BA, offset: 0x1B2BA, size: 0x8, addend: 0x0, symName: __ZNSt3__116allocator_traitsINS_9allocatorIcEEE8allocateB7v160006ERS2_m, symObjAddr: 0x7E90, symBinAddr: 0x100009924, symSize: 0x2C }
  - { offsetInCU: 0x1B2C2, offset: 0x1B2C2, size: 0x8, addend: 0x0, symName: __ZNSt3__114__split_bufferIPcNS_9allocatorIS1_EEE10push_frontEOS1_, symObjAddr: 0x7EBC, symBinAddr: 0x100009950, symSize: 0x25C }
  - { offsetInCU: 0x1B2F1, offset: 0x1B2F1, size: 0x8, addend: 0x0, symName: __ZNSt3__114__split_bufferIPcNS_9allocatorIS1_EEE10push_frontEOS1_, symObjAddr: 0x7EBC, symBinAddr: 0x100009950, symSize: 0x25C }
  - { offsetInCU: 0x1B2F9, offset: 0x1B2F9, size: 0x8, addend: 0x0, symName: __ZNSt3__114__split_bufferIPcRNS_9allocatorIS1_EEEC1EmmS4_, symObjAddr: 0x8118, symBinAddr: 0x100009BAC, symSize: 0x44 }
  - { offsetInCU: 0x1B372, offset: 0x1B372, size: 0x8, addend: 0x0, symName: __ZNSt3__114__split_bufferIPcRNS_9allocatorIS1_EEEC1EmmS4_, symObjAddr: 0x8118, symBinAddr: 0x100009BAC, symSize: 0x44 }
  - { offsetInCU: 0x1B37A, offset: 0x1B37A, size: 0x8, addend: 0x0, symName: __ZNSt3__114__split_bufferIPcRNS_9allocatorIS1_EEE9push_backEOS1_, symObjAddr: 0x815C, symBinAddr: 0x100009BF0, symSize: 0x260 }
  - { offsetInCU: 0x1B3CD, offset: 0x1B3CD, size: 0x8, addend: 0x0, symName: __ZNSt3__114__split_bufferIPcRNS_9allocatorIS1_EEE9push_backEOS1_, symObjAddr: 0x815C, symBinAddr: 0x100009BF0, symSize: 0x260 }
  - { offsetInCU: 0x1B3D5, offset: 0x1B3D5, size: 0x8, addend: 0x0, symName: __ZNSt3__114__split_bufferIPcRNS_9allocatorIS1_EEE5beginB7v160006Ev, symObjAddr: 0x83BC, symBinAddr: 0x100009E50, symSize: 0x18 }
  - { offsetInCU: 0x1B44E, offset: 0x1B44E, size: 0x8, addend: 0x0, symName: __ZNSt3__114__split_bufferIPcRNS_9allocatorIS1_EEE5beginB7v160006Ev, symObjAddr: 0x83BC, symBinAddr: 0x100009E50, symSize: 0x18 }
  - { offsetInCU: 0x1B456, offset: 0x1B456, size: 0x8, addend: 0x0, symName: __ZNSt3__114__split_bufferIPcRNS_9allocatorIS1_EEE3endB7v160006Ev, symObjAddr: 0x83D4, symBinAddr: 0x100009E68, symSize: 0x18 }
  - { offsetInCU: 0x1B47A, offset: 0x1B47A, size: 0x8, addend: 0x0, symName: __ZNSt3__114__split_bufferIPcRNS_9allocatorIS1_EEE3endB7v160006Ev, symObjAddr: 0x83D4, symBinAddr: 0x100009E68, symSize: 0x18 }
  - { offsetInCU: 0x1B482, offset: 0x1B482, size: 0x8, addend: 0x0, symName: __ZNSt3__114__split_bufferIPcRNS_9allocatorIS1_EEE9push_backB7v160006ERKS1_, symObjAddr: 0x83EC, symBinAddr: 0x100009E80, symSize: 0x260 }
  - { offsetInCU: 0x1B4A6, offset: 0x1B4A6, size: 0x8, addend: 0x0, symName: __ZNSt3__114__split_bufferIPcRNS_9allocatorIS1_EEE9push_backB7v160006ERKS1_, symObjAddr: 0x83EC, symBinAddr: 0x100009E80, symSize: 0x260 }
  - { offsetInCU: 0x1B4AE, offset: 0x1B4AE, size: 0x8, addend: 0x0, symName: __ZNSt3__114__split_bufferIPcRNS_9allocatorIS1_EEE10push_frontERKS1_, symObjAddr: 0x864C, symBinAddr: 0x10000A0E0, symSize: 0x25C }
  - { offsetInCU: 0x1B527, offset: 0x1B527, size: 0x8, addend: 0x0, symName: __ZNSt3__114__split_bufferIPcRNS_9allocatorIS1_EEE10push_frontERKS1_, symObjAddr: 0x864C, symBinAddr: 0x10000A0E0, symSize: 0x25C }
  - { offsetInCU: 0x1B52F, offset: 0x1B52F, size: 0x8, addend: 0x0, symName: __ZNSt3__14swapB7v160006IPPcEENS_9enable_ifIXaasr21is_move_constructibleIT_EE5valuesr18is_move_assignableIS4_EE5valueEvE4typeERS4_S7_, symObjAddr: 0x88A8, symBinAddr: 0x10000A33C, symSize: 0x3C }
  - { offsetInCU: 0x1B5A8, offset: 0x1B5A8, size: 0x8, addend: 0x0, symName: __ZNSt3__114__split_bufferIPcRNS_9allocatorIS1_EEE9__end_capB7v160006Ev, symObjAddr: 0x88E4, symBinAddr: 0x10000A378, symSize: 0x28 }
  - { offsetInCU: 0x1B5B0, offset: 0x1B5B0, size: 0x8, addend: 0x0, symName: __ZNSt3__114__split_bufferIPcRNS_9allocatorIS1_EEED1Ev, symObjAddr: 0x890C, symBinAddr: 0x10000A3A0, symSize: 0x2C }
  - { offsetInCU: 0x1B5D3, offset: 0x1B5D3, size: 0x8, addend: 0x0, symName: __ZNSt3__114__split_bufferIPcRNS_9allocatorIS1_EEED1Ev, symObjAddr: 0x890C, symBinAddr: 0x10000A3A0, symSize: 0x2C }
  - { offsetInCU: 0x1B5DB, offset: 0x1B5DB, size: 0x8, addend: 0x0, symName: __ZNSt3__14moveB7v160006IPPcS2_EET0_T_S4_S3_, symObjAddr: 0x8938, symBinAddr: 0x10000A3CC, symSize: 0x40 }
  - { offsetInCU: 0x1B604, offset: 0x1B604, size: 0x8, addend: 0x0, symName: __ZNSt3__114__split_bufferIPcRNS_9allocatorIS1_EEE18__construct_at_endINS_13move_iteratorIPS1_EEEENS_9enable_ifIXsr27__is_cpp17_forward_iteratorIT_EE5valueEvE4typeESB_SB_, symObjAddr: 0x8978, symBinAddr: 0x10000A40C, symSize: 0xFC }
  - { offsetInCU: 0x1B60C, offset: 0x1B60C, size: 0x8, addend: 0x0, symName: __ZNSt3__113move_iteratorIPPcEC1B7v160006ES2_, symObjAddr: 0x8A74, symBinAddr: 0x10000A508, symSize: 0x34 }
  - { offsetInCU: 0x1B665, offset: 0x1B665, size: 0x8, addend: 0x0, symName: __ZNSt3__113move_iteratorIPPcEC1B7v160006ES2_, symObjAddr: 0x8A74, symBinAddr: 0x10000A508, symSize: 0x34 }
  - { offsetInCU: 0x1B66D, offset: 0x1B66D, size: 0x8, addend: 0x0, symName: __ZNSt3__116allocator_traitsINS_9allocatorIPcEEE9constructB7v160006IS2_JRKS2_EvvEEvRS3_PT_DpOT0_, symObjAddr: 0x8AA8, symBinAddr: 0x10000A53C, symSize: 0x30 }
  - { offsetInCU: 0x1B6A8, offset: 0x1B6A8, size: 0x8, addend: 0x0, symName: __ZNSt3__116allocator_traitsINS_9allocatorIPcEEE9constructB7v160006IS2_JRKS2_EvvEEvRS3_PT_DpOT0_, symObjAddr: 0x8AA8, symBinAddr: 0x10000A53C, symSize: 0x30 }
  - { offsetInCU: 0x1B6B0, offset: 0x1B6B0, size: 0x8, addend: 0x0, symName: __ZNSt3__16__moveB7v160006INS_17_ClassicAlgPolicyEPPcS3_S3_EENS_4pairIT0_T2_EES5_T1_S6_, symObjAddr: 0x8AD8, symBinAddr: 0x10000A56C, symSize: 0x44 }
  - { offsetInCU: 0x1B729, offset: 0x1B729, size: 0x8, addend: 0x0, symName: __ZNKSt3__114__move_trivialclB7v160006IPcS2_Li0EEENS_4pairIPT_PT0_EES5_S5_S7_, symObjAddr: 0x8C50, symBinAddr: 0x10000A6E4, symSize: 0x48 }
  - { offsetInCU: 0x1B731, offset: 0x1B731, size: 0x8, addend: 0x0, symName: __ZNSt3__113__unwrap_iterB7v160006IPPcNS_18__unwrap_iter_implIS2_Lb1EEELi0EEEDTclsrT0_8__unwrapclsr3stdE7declvalIT_EEEES6_, symObjAddr: 0x8C98, symBinAddr: 0x10000A72C, symSize: 0x24 }
  - { offsetInCU: 0x1B796, offset: 0x1B796, size: 0x8, addend: 0x0, symName: __ZNSt3__119__unwrap_range_implIPPcS2_E8__unwrapB7v160006ES2_S2_, symObjAddr: 0x8D5C, symBinAddr: 0x10000A7F0, symSize: 0x58 }
  - { offsetInCU: 0x1B79E, offset: 0x1B79E, size: 0x8, addend: 0x0, symName: __ZNSt3__14pairIPPcS2_EC1B7v160006IS2_S2_LPv0EEEOT_OT0_, symObjAddr: 0x8DB4, symBinAddr: 0x10000A848, symSize: 0x3C }
  - { offsetInCU: 0x1B7D1, offset: 0x1B7D1, size: 0x8, addend: 0x0, symName: __ZNSt3__14pairIPPcS2_EC1B7v160006IS2_S2_LPv0EEEOT_OT0_, symObjAddr: 0x8DB4, symBinAddr: 0x10000A848, symSize: 0x3C }
  - { offsetInCU: 0x1B7D9, offset: 0x1B7D9, size: 0x8, addend: 0x0, symName: __ZNSt3__14pairIPPcS2_EC2B7v160006IS2_S2_LPv0EEEOT_OT0_, symObjAddr: 0x8DF0, symBinAddr: 0x10000A884, symSize: 0x34 }
  - { offsetInCU: 0x1B834, offset: 0x1B834, size: 0x8, addend: 0x0, symName: __ZNSt3__14pairIPPcS2_EC2B7v160006IS2_S2_LPv0EEEOT_OT0_, symObjAddr: 0x8DF0, symBinAddr: 0x10000A884, symSize: 0x34 }
  - { offsetInCU: 0x1B83C, offset: 0x1B83C, size: 0x8, addend: 0x0, symName: __ZNSt3__119__copy_trivial_implB7v160006IPcS1_EENS_4pairIPT_PT0_EES4_S4_S6_, symObjAddr: 0x8E24, symBinAddr: 0x10000A8B8, symSize: 0x84 }
  - { offsetInCU: 0x1B898, offset: 0x1B898, size: 0x8, addend: 0x0, symName: __ZNSt3__14pairIPPcS2_EC1B7v160006IRS2_S2_LPv0EEEOT_OT0_, symObjAddr: 0x8EE0, symBinAddr: 0x10000A974, symSize: 0x3C }
  - { offsetInCU: 0x1B8A0, offset: 0x1B8A0, size: 0x8, addend: 0x0, symName: __ZNSt3__14pairIPPcS2_EC2B7v160006IRS2_S2_LPv0EEEOT_OT0_, symObjAddr: 0x8F1C, symBinAddr: 0x10000A9B0, symSize: 0x34 }
  - { offsetInCU: 0x1B8FB, offset: 0x1B8FB, size: 0x8, addend: 0x0, symName: __ZNSt3__14pairIPPcS2_EC2B7v160006IRS2_S2_LPv0EEEOT_OT0_, symObjAddr: 0x8F1C, symBinAddr: 0x10000A9B0, symSize: 0x34 }
  - { offsetInCU: 0x1B903, offset: 0x1B903, size: 0x8, addend: 0x0, symName: __ZNSt3__118__unwrap_iter_implIPPcLb1EE8__unwrapB7v160006ES2_, symObjAddr: 0x8F50, symBinAddr: 0x10000A9E4, symSize: 0x24 }
  - { offsetInCU: 0x1B95F, offset: 0x1B95F, size: 0x8, addend: 0x0, symName: __ZNSt3__118__unwrap_iter_implIPPcLb1EE8__unwrapB7v160006ES2_, symObjAddr: 0x8F50, symBinAddr: 0x10000A9E4, symSize: 0x24 }
  - { offsetInCU: 0x1B967, offset: 0x1B967, size: 0x8, addend: 0x0, symName: __ZNSt3__119__unwrap_range_implIPPcS2_E8__rewrapB7v160006ES2_S2_, symObjAddr: 0x8F74, symBinAddr: 0x10000AA08, symSize: 0x2C }
  - { offsetInCU: 0x1B986, offset: 0x1B986, size: 0x8, addend: 0x0, symName: __ZNSt3__119__unwrap_range_implIPPcS2_E8__rewrapB7v160006ES2_S2_, symObjAddr: 0x8F74, symBinAddr: 0x10000AA08, symSize: 0x2C }
  - { offsetInCU: 0x1B98E, offset: 0x1B98E, size: 0x8, addend: 0x0, symName: __ZNSt3__118__unwrap_iter_implIPPcLb1EE8__rewrapB7v160006ES2_S2_, symObjAddr: 0x8FA0, symBinAddr: 0x10000AA34, symSize: 0x50 }
  - { offsetInCU: 0x1B9BB, offset: 0x1B9BB, size: 0x8, addend: 0x0, symName: __ZNSt3__118__unwrap_iter_implIPPcLb1EE8__rewrapB7v160006ES2_S2_, symObjAddr: 0x8FA0, symBinAddr: 0x10000AA34, symSize: 0x50 }
  - { offsetInCU: 0x1B9C3, offset: 0x1B9C3, size: 0x8, addend: 0x0, symName: __ZNSt3__18distanceB7v160006INS_13move_iteratorIPPcEEEENS_15iterator_traitsIT_E15difference_typeES6_S6_, symObjAddr: 0x8FF0, symBinAddr: 0x10000AA84, symSize: 0x3C }
  - { offsetInCU: 0x1B9FC, offset: 0x1B9FC, size: 0x8, addend: 0x0, symName: __ZNSt3__114__split_bufferIPcRNS_9allocatorIS1_EEE21_ConstructTransactionC1B7v160006EPPS1_m, symObjAddr: 0x902C, symBinAddr: 0x10000AAC0, symSize: 0x3C }
  - { offsetInCU: 0x1BA04, offset: 0x1BA04, size: 0x8, addend: 0x0, symName: __ZNSt3__116allocator_traitsINS_9allocatorIPcEEE9constructB7v160006IS2_JS2_EvvEEvRS3_PT_DpOT0_, symObjAddr: 0x9068, symBinAddr: 0x10000AAFC, symSize: 0x30 }
  - { offsetInCU: 0x1BA4D, offset: 0x1BA4D, size: 0x8, addend: 0x0, symName: __ZNSt3__116allocator_traitsINS_9allocatorIPcEEE9constructB7v160006IS2_JS2_EvvEEvRS3_PT_DpOT0_, symObjAddr: 0x9068, symBinAddr: 0x10000AAFC, symSize: 0x30 }
  - { offsetInCU: 0x1BA55, offset: 0x1BA55, size: 0x8, addend: 0x0, symName: __ZNSt3__114__split_bufferIPcRNS_9allocatorIS1_EEE7__allocB7v160006Ev, symObjAddr: 0x9098, symBinAddr: 0x10000AB2C, symSize: 0x28 }
  - { offsetInCU: 0x1BAA6, offset: 0x1BAA6, size: 0x8, addend: 0x0, symName: __ZNSt3__114__split_bufferIPcRNS_9allocatorIS1_EEE7__allocB7v160006Ev, symObjAddr: 0x9098, symBinAddr: 0x10000AB2C, symSize: 0x28 }
  - { offsetInCU: 0x1BAAE, offset: 0x1BAAE, size: 0x8, addend: 0x0, symName: __ZNKSt3__113move_iteratorIPPcEdeB7v160006Ev, symObjAddr: 0x90C0, symBinAddr: 0x10000AB54, symSize: 0x2C }
  - { offsetInCU: 0x1BAD1, offset: 0x1BAD1, size: 0x8, addend: 0x0, symName: __ZNKSt3__113move_iteratorIPPcEdeB7v160006Ev, symObjAddr: 0x90C0, symBinAddr: 0x10000AB54, symSize: 0x2C }
  - { offsetInCU: 0x1BAD9, offset: 0x1BAD9, size: 0x8, addend: 0x0, symName: __ZNSt3__113move_iteratorIPPcEppB7v160006Ev, symObjAddr: 0x90EC, symBinAddr: 0x10000AB80, symSize: 0x20 }
  - { offsetInCU: 0x1BAFC, offset: 0x1BAFC, size: 0x8, addend: 0x0, symName: __ZNSt3__113move_iteratorIPPcEppB7v160006Ev, symObjAddr: 0x90EC, symBinAddr: 0x10000AB80, symSize: 0x20 }
  - { offsetInCU: 0x1BB04, offset: 0x1BB04, size: 0x8, addend: 0x0, symName: __ZNSt3__114__split_bufferIPcRNS_9allocatorIS1_EEE21_ConstructTransactionD1B7v160006Ev, symObjAddr: 0x910C, symBinAddr: 0x10000ABA0, symSize: 0x2C }
  - { offsetInCU: 0x1BB28, offset: 0x1BB28, size: 0x8, addend: 0x0, symName: __ZNSt3__114__split_bufferIPcRNS_9allocatorIS1_EEE21_ConstructTransactionD1B7v160006Ev, symObjAddr: 0x910C, symBinAddr: 0x10000ABA0, symSize: 0x2C }
  - { offsetInCU: 0x1BB30, offset: 0x1BB30, size: 0x8, addend: 0x0, symName: __ZNSt3__110__distanceB7v160006INS_13move_iteratorIPPcEEEENS_15iterator_traitsIT_E15difference_typeES6_S6_NS_26random_access_iterator_tagE, symObjAddr: 0x9138, symBinAddr: 0x10000ABCC, symSize: 0x30 }
  - { offsetInCU: 0x1BB57, offset: 0x1BB57, size: 0x8, addend: 0x0, symName: __ZNKRSt3__113move_iteratorIPPcE4baseB7v160006Ev, symObjAddr: 0x91B4, symBinAddr: 0x10000AC48, symSize: 0x14 }
  - { offsetInCU: 0x1BB5F, offset: 0x1BB5F, size: 0x8, addend: 0x0, symName: __ZNSt3__114__split_bufferIPcRNS_9allocatorIS1_EEE21_ConstructTransactionC2B7v160006EPPS1_m, symObjAddr: 0x91C8, symBinAddr: 0x10000AC5C, symSize: 0x44 }
  - { offsetInCU: 0x1BB83, offset: 0x1BB83, size: 0x8, addend: 0x0, symName: __ZNSt3__114__split_bufferIPcRNS_9allocatorIS1_EEE21_ConstructTransactionC2B7v160006EPPS1_m, symObjAddr: 0x91C8, symBinAddr: 0x10000AC5C, symSize: 0x44 }
  - { offsetInCU: 0x1BB8B, offset: 0x1BB8B, size: 0x8, addend: 0x0, symName: __ZNSt3__112construct_atB7v160006IPcJS1_EPS1_EEPT_S4_DpOT0_, symObjAddr: 0x920C, symBinAddr: 0x10000ACA0, symSize: 0x2C }
  - { offsetInCU: 0x1BBCF, offset: 0x1BBCF, size: 0x8, addend: 0x0, symName: __ZNSt3__117__compressed_pairIPPcRNS_9allocatorIS1_EEE6secondB7v160006Ev, symObjAddr: 0x9238, symBinAddr: 0x10000ACCC, symSize: 0x28 }
  - { offsetInCU: 0x1BBD7, offset: 0x1BBD7, size: 0x8, addend: 0x0, symName: __ZNSt3__122__compressed_pair_elemIRNS_9allocatorIPcEELi1ELb0EE5__getB7v160006Ev, symObjAddr: 0x9260, symBinAddr: 0x10000ACF4, symSize: 0x18 }
  - { offsetInCU: 0x1BBFA, offset: 0x1BBFA, size: 0x8, addend: 0x0, symName: __ZNSt3__122__compressed_pair_elemIRNS_9allocatorIPcEELi1ELb0EE5__getB7v160006Ev, symObjAddr: 0x9260, symBinAddr: 0x10000ACF4, symSize: 0x18 }
  - { offsetInCU: 0x1BC02, offset: 0x1BC02, size: 0x8, addend: 0x0, symName: __ZNKSt3__16ranges11__iter_move4__fnclB7v160006IRKPPcEEDTclsr3stdE4movedeclsr3stdE7forwardIT_Efp_EEEOS8_, symObjAddr: 0x9278, symBinAddr: 0x10000AD0C, symSize: 0x1C }
  - { offsetInCU: 0x1BC2C, offset: 0x1BC2C, size: 0x8, addend: 0x0, symName: __ZNKSt3__16ranges11__iter_move4__fnclB7v160006IRKPPcEEDTclsr3stdE4movedeclsr3stdE7forwardIT_Efp_EEEOS8_, symObjAddr: 0x9278, symBinAddr: 0x10000AD0C, symSize: 0x1C }
  - { offsetInCU: 0x1BC34, offset: 0x1BC34, size: 0x8, addend: 0x0, symName: __ZNSt3__114__split_bufferIPcRNS_9allocatorIS1_EEE21_ConstructTransactionD2B7v160006Ev, symObjAddr: 0x9294, symBinAddr: 0x10000AD28, symSize: 0x20 }
  - { offsetInCU: 0x1BC6F, offset: 0x1BC6F, size: 0x8, addend: 0x0, symName: __ZNSt3__114__split_bufferIPcRNS_9allocatorIS1_EEE21_ConstructTransactionD2B7v160006Ev, symObjAddr: 0x9294, symBinAddr: 0x10000AD28, symSize: 0x20 }
  - { offsetInCU: 0x1BC77, offset: 0x1BC77, size: 0x8, addend: 0x0, symName: __ZNSt3__113move_iteratorIPPcEC2B7v160006ES2_, symObjAddr: 0x92B4, symBinAddr: 0x10000AD48, symSize: 0x20 }
  - { offsetInCU: 0x1BC9F, offset: 0x1BC9F, size: 0x8, addend: 0x0, symName: __ZNSt3__113move_iteratorIPPcEC2B7v160006ES2_, symObjAddr: 0x92B4, symBinAddr: 0x10000AD48, symSize: 0x20 }
  - { offsetInCU: 0x1BCA7, offset: 0x1BCA7, size: 0x8, addend: 0x0, symName: __ZNSt3__112construct_atB7v160006IPcJRKS1_EPS1_EEPT_S6_DpOT0_, symObjAddr: 0x92D4, symBinAddr: 0x10000AD68, symSize: 0x2C }
  - { offsetInCU: 0x1BCDD, offset: 0x1BCDD, size: 0x8, addend: 0x0, symName: __ZNSt3__19allocatorIcE8allocateB7v160006Em, symObjAddr: 0x9300, symBinAddr: 0x10000AD94, symSize: 0x58 }
  - { offsetInCU: 0x1BCE5, offset: 0x1BCE5, size: 0x8, addend: 0x0, symName: __ZNSt3__116allocator_traitsINS_9allocatorIcEEE8max_sizeB7v160006IS2_vvEEmRKS2_, symObjAddr: 0x9358, symBinAddr: 0x10000ADEC, symSize: 0x28 }
  - { offsetInCU: 0x1BD16, offset: 0x1BD16, size: 0x8, addend: 0x0, symName: __ZNSt3__116allocator_traitsINS_9allocatorIcEEE8max_sizeB7v160006IS2_vvEEmRKS2_, symObjAddr: 0x9358, symBinAddr: 0x10000ADEC, symSize: 0x28 }
  - { offsetInCU: 0x1BD1E, offset: 0x1BD1E, size: 0x8, addend: 0x0, symName: __ZNSt3__113move_backwardB7v160006IPPcS2_EET0_T_S4_S3_, symObjAddr: 0x9380, symBinAddr: 0x10000AE14, symSize: 0x40 }
  - { offsetInCU: 0x1BD51, offset: 0x1BD51, size: 0x8, addend: 0x0, symName: __ZNKSt3__123__move_backward_trivialclB7v160006IPcS2_Li0EEENS_4pairIPT_PT0_EES5_S5_S7_, symObjAddr: 0x94FC, symBinAddr: 0x10000AF90, symSize: 0x48 }
  - { offsetInCU: 0x1BD59, offset: 0x1BD59, size: 0x8, addend: 0x0, symName: __ZNSt3__128__copy_backward_trivial_implB7v160006IPcS1_EENS_4pairIPT_PT0_EES4_S4_S6_, symObjAddr: 0x9544, symBinAddr: 0x10000AFD8, symSize: 0x94 }
  - { offsetInCU: 0x1BDBE, offset: 0x1BDBE, size: 0x8, addend: 0x0, symName: __ZNSt3__14pairIPPcS2_EC1B7v160006IRS2_S5_LPv0EEEOT_OT0_, symObjAddr: 0x9610, symBinAddr: 0x10000B0A4, symSize: 0x3C }
  - { offsetInCU: 0x1BDC6, offset: 0x1BDC6, size: 0x8, addend: 0x0, symName: __ZNSt3__14pairIPPcS2_EC2B7v160006IRS2_S5_LPv0EEEOT_OT0_, symObjAddr: 0x964C, symBinAddr: 0x10000B0E0, symSize: 0x34 }
  - { offsetInCU: 0x1BE21, offset: 0x1BE21, size: 0x8, addend: 0x0, symName: __ZNSt3__14pairIPPcS2_EC2B7v160006IRS2_S5_LPv0EEEOT_OT0_, symObjAddr: 0x964C, symBinAddr: 0x10000B0E0, symSize: 0x34 }
  - { offsetInCU: 0x1BE29, offset: 0x1BE29, size: 0x8, addend: 0x0, symName: __ZNSt3__114__split_bufferIPcRNS_9allocatorIS1_EEEC2EmmS4_, symObjAddr: 0x9680, symBinAddr: 0x10000B114, symSize: 0xD4 }
  - { offsetInCU: 0x1BE85, offset: 0x1BE85, size: 0x8, addend: 0x0, symName: __ZNSt3__114__split_bufferIPcRNS_9allocatorIS1_EEEC2EmmS4_, symObjAddr: 0x9680, symBinAddr: 0x10000B114, symSize: 0xD4 }
  - { offsetInCU: 0x1BE8D, offset: 0x1BE8D, size: 0x8, addend: 0x0, symName: __ZNSt3__117__compressed_pairIPPcRNS_9allocatorIS1_EEEC1B7v160006IDnS5_EEOT_OT0_, symObjAddr: 0x9754, symBinAddr: 0x10000B1E8, symSize: 0x3C }
  - { offsetInCU: 0x1BF01, offset: 0x1BF01, size: 0x8, addend: 0x0, symName: __ZNSt3__117__compressed_pairIPPcRNS_9allocatorIS1_EEEC1B7v160006IDnS5_EEOT_OT0_, symObjAddr: 0x9754, symBinAddr: 0x10000B1E8, symSize: 0x3C }
  - { offsetInCU: 0x1BF09, offset: 0x1BF09, size: 0x8, addend: 0x0, symName: __ZNSt3__119__allocate_at_leastB7v160006INS_9allocatorIPcEEEENS_19__allocation_resultINS_16allocator_traitsIT_E7pointerEEERS6_m, symObjAddr: 0x9790, symBinAddr: 0x10000B224, symSize: 0x40 }
  - { offsetInCU: 0x1BF5E, offset: 0x1BF5E, size: 0x8, addend: 0x0, symName: __ZNSt3__117__compressed_pairIPPcRNS_9allocatorIS1_EEEC2B7v160006IDnS5_EEOT_OT0_, symObjAddr: 0x97D0, symBinAddr: 0x10000B264, symSize: 0x48 }
  - { offsetInCU: 0x1BF66, offset: 0x1BF66, size: 0x8, addend: 0x0, symName: __ZNSt3__122__compressed_pair_elemIRNS_9allocatorIPcEELi1ELb0EEC2B7v160006IS4_vEEOT_, symObjAddr: 0x9818, symBinAddr: 0x10000B2AC, symSize: 0x20 }
  - { offsetInCU: 0x1BFBB, offset: 0x1BFBB, size: 0x8, addend: 0x0, symName: __ZNSt3__122__compressed_pair_elemIRNS_9allocatorIPcEELi1ELb0EEC2B7v160006IS4_vEEOT_, symObjAddr: 0x9818, symBinAddr: 0x10000B2AC, symSize: 0x20 }
  - { offsetInCU: 0x1BFC3, offset: 0x1BFC3, size: 0x8, addend: 0x0, symName: __ZNSt3__19allocatorIPcE8allocateB7v160006Em, symObjAddr: 0x9838, symBinAddr: 0x10000B2CC, symSize: 0x58 }
  - { offsetInCU: 0x1C003, offset: 0x1C003, size: 0x8, addend: 0x0, symName: __ZNSt3__19allocatorIPcE8allocateB7v160006Em, symObjAddr: 0x9838, symBinAddr: 0x10000B2CC, symSize: 0x58 }
  - { offsetInCU: 0x1C00B, offset: 0x1C00B, size: 0x8, addend: 0x0, symName: __ZNSt3__116allocator_traitsINS_9allocatorIPcEEE8max_sizeB7v160006IS3_vvEEmRKS3_, symObjAddr: 0x9890, symBinAddr: 0x10000B324, symSize: 0x28 }
  - { offsetInCU: 0x1C047, offset: 0x1C047, size: 0x8, addend: 0x0, symName: __ZNSt3__116allocator_traitsINS_9allocatorIPcEEE8max_sizeB7v160006IS3_vvEEmRKS3_, symObjAddr: 0x9890, symBinAddr: 0x10000B324, symSize: 0x28 }
  - { offsetInCU: 0x1C04F, offset: 0x1C04F, size: 0x8, addend: 0x0, symName: __ZNSt3__117__compressed_pairIPPcRNS_9allocatorIS1_EEE5firstB7v160006Ev, symObjAddr: 0x98B8, symBinAddr: 0x10000B34C, symSize: 0x24 }
  - { offsetInCU: 0x1C077, offset: 0x1C077, size: 0x8, addend: 0x0, symName: __ZNSt3__117__compressed_pairIPPcRNS_9allocatorIS1_EEE5firstB7v160006Ev, symObjAddr: 0x98B8, symBinAddr: 0x10000B34C, symSize: 0x24 }
  - { offsetInCU: 0x1C07F, offset: 0x1C07F, size: 0x8, addend: 0x0, symName: __ZNSt3__114__split_bufferIPcRNS_9allocatorIS1_EEED2Ev, symObjAddr: 0x98DC, symBinAddr: 0x10000B370, symSize: 0x8C }
  - { offsetInCU: 0x1C0A2, offset: 0x1C0A2, size: 0x8, addend: 0x0, symName: __ZNSt3__114__split_bufferIPcRNS_9allocatorIS1_EEED2Ev, symObjAddr: 0x98DC, symBinAddr: 0x10000B370, symSize: 0x8C }
  - { offsetInCU: 0x1C0AA, offset: 0x1C0AA, size: 0x8, addend: 0x0, symName: __ZNSt3__114__split_bufferIPcRNS_9allocatorIS1_EEE5clearB7v160006Ev, symObjAddr: 0x9968, symBinAddr: 0x10000B3FC, symSize: 0x28 }
  - { offsetInCU: 0x1C0D3, offset: 0x1C0D3, size: 0x8, addend: 0x0, symName: __ZNSt3__114__split_bufferIPcRNS_9allocatorIS1_EEE5clearB7v160006Ev, symObjAddr: 0x9968, symBinAddr: 0x10000B3FC, symSize: 0x28 }
  - { offsetInCU: 0x1C0DB, offset: 0x1C0DB, size: 0x8, addend: 0x0, symName: __ZNKSt3__114__split_bufferIPcRNS_9allocatorIS1_EEE8capacityB7v160006Ev, symObjAddr: 0x9990, symBinAddr: 0x10000B424, symSize: 0x40 }
  - { offsetInCU: 0x1C0FE, offset: 0x1C0FE, size: 0x8, addend: 0x0, symName: __ZNKSt3__114__split_bufferIPcRNS_9allocatorIS1_EEE8capacityB7v160006Ev, symObjAddr: 0x9990, symBinAddr: 0x10000B424, symSize: 0x40 }
  - { offsetInCU: 0x1C106, offset: 0x1C106, size: 0x8, addend: 0x0, symName: __ZNSt3__114__split_bufferIPcRNS_9allocatorIS1_EEE17__destruct_at_endB7v160006EPS1_, symObjAddr: 0x99D0, symBinAddr: 0x10000B464, symSize: 0x2C }
  - { offsetInCU: 0x1C129, offset: 0x1C129, size: 0x8, addend: 0x0, symName: __ZNSt3__114__split_bufferIPcRNS_9allocatorIS1_EEE17__destruct_at_endB7v160006EPS1_, symObjAddr: 0x99D0, symBinAddr: 0x10000B464, symSize: 0x2C }
  - { offsetInCU: 0x1C131, offset: 0x1C131, size: 0x8, addend: 0x0, symName: __ZNSt3__114__split_bufferIPcRNS_9allocatorIS1_EEE17__destruct_at_endB7v160006EPS1_NS_17integral_constantIbLb0EEE, symObjAddr: 0x99FC, symBinAddr: 0x10000B490, symSize: 0x80 }
  - { offsetInCU: 0x1C162, offset: 0x1C162, size: 0x8, addend: 0x0, symName: __ZNSt3__114__split_bufferIPcRNS_9allocatorIS1_EEE17__destruct_at_endB7v160006EPS1_NS_17integral_constantIbLb0EEE, symObjAddr: 0x99FC, symBinAddr: 0x10000B490, symSize: 0x80 }
  - { offsetInCU: 0x1C16A, offset: 0x1C16A, size: 0x8, addend: 0x0, symName: __ZNKSt3__114__split_bufferIPcRNS_9allocatorIS1_EEE9__end_capB7v160006Ev, symObjAddr: 0x9A7C, symBinAddr: 0x10000B510, symSize: 0x28 }
  - { offsetInCU: 0x1C1A7, offset: 0x1C1A7, size: 0x8, addend: 0x0, symName: __ZNKSt3__114__split_bufferIPcRNS_9allocatorIS1_EEE9__end_capB7v160006Ev, symObjAddr: 0x9A7C, symBinAddr: 0x10000B510, symSize: 0x28 }
  - { offsetInCU: 0x1C1AF, offset: 0x1C1AF, size: 0x8, addend: 0x0, symName: __ZNKSt3__117__compressed_pairIPPcRNS_9allocatorIS1_EEE5firstB7v160006Ev, symObjAddr: 0x9AA4, symBinAddr: 0x10000B538, symSize: 0x24 }
  - { offsetInCU: 0x1C1D2, offset: 0x1C1D2, size: 0x8, addend: 0x0, symName: __ZNKSt3__117__compressed_pairIPPcRNS_9allocatorIS1_EEE5firstB7v160006Ev, symObjAddr: 0x9AA4, symBinAddr: 0x10000B538, symSize: 0x24 }
  - { offsetInCU: 0x1C1DA, offset: 0x1C1DA, size: 0x8, addend: 0x0, symName: __ZNSt3__116__deque_iteratorIcPcRcPS1_lLl4096EEpLB7v160006El, symObjAddr: 0x9AC8, symBinAddr: 0x10000B55C, symSize: 0x108 }
  - { offsetInCU: 0x1C1FD, offset: 0x1C1FD, size: 0x8, addend: 0x0, symName: __ZNSt3__116__deque_iteratorIcPcRcPS1_lLl4096EEpLB7v160006El, symObjAddr: 0x9AC8, symBinAddr: 0x10000B55C, symSize: 0x108 }
  - { offsetInCU: 0x1C205, offset: 0x1C205, size: 0x8, addend: 0x0, symName: __ZNSt3__15dequeIcNS_9allocatorIcEEE13__deque_rangeC2B7v160006ENS_16__deque_iteratorIcPcRcPS6_lLl4096EEES9_, symObjAddr: 0x9BD0, symBinAddr: 0x10000B664, symSize: 0x34 }
  - { offsetInCU: 0x1C259, offset: 0x1C259, size: 0x8, addend: 0x0, symName: __ZNSt3__15dequeIcNS_9allocatorIcEEE13__deque_rangeC2B7v160006ENS_16__deque_iteratorIcPcRcPS6_lLl4096EEES9_, symObjAddr: 0x9BD0, symBinAddr: 0x10000B664, symSize: 0x34 }
  - { offsetInCU: 0x1C261, offset: 0x1C261, size: 0x8, addend: 0x0, symName: __ZNSt3__1eqB7v160006ERKNS_5dequeIcNS_9allocatorIcEEE13__deque_rangeES6_, symObjAddr: 0x9C04, symBinAddr: 0x10000B698, symSize: 0x30 }
  - { offsetInCU: 0x1C2A7, offset: 0x1C2A7, size: 0x8, addend: 0x0, symName: __ZNSt3__15dequeIcNS_9allocatorIcEEE19__deque_block_rangeC1B7v160006EPcS5_, symObjAddr: 0x9C34, symBinAddr: 0x10000B6C8, symSize: 0x3C }
  - { offsetInCU: 0x1C2AF, offset: 0x1C2AF, size: 0x8, addend: 0x0, symName: __ZNSt3__15dequeIcNS_9allocatorIcEEE19__deque_block_rangeC2B7v160006EPcS5_, symObjAddr: 0x9C70, symBinAddr: 0x10000B704, symSize: 0x2C }
  - { offsetInCU: 0x1C2F4, offset: 0x1C2F4, size: 0x8, addend: 0x0, symName: __ZNSt3__15dequeIcNS_9allocatorIcEEE19__deque_block_rangeC2B7v160006EPcS5_, symObjAddr: 0x9C70, symBinAddr: 0x10000B704, symSize: 0x2C }
  - { offsetInCU: 0x1C2FC, offset: 0x1C2FC, size: 0x8, addend: 0x0, symName: __ZNSt3__15dequeIcNS_9allocatorIcEEE21_ConstructTransactionC2B7v160006EPS3_RNS3_19__deque_block_rangeE, symObjAddr: 0x9C9C, symBinAddr: 0x10000B730, symSize: 0x48 }
  - { offsetInCU: 0x1C342, offset: 0x1C342, size: 0x8, addend: 0x0, symName: __ZNSt3__15dequeIcNS_9allocatorIcEEE21_ConstructTransactionC2B7v160006EPS3_RNS3_19__deque_block_rangeE, symObjAddr: 0x9C9C, symBinAddr: 0x10000B730, symSize: 0x48 }
  - { offsetInCU: 0x1C34A, offset: 0x1C34A, size: 0x8, addend: 0x0, symName: __ZNSt3__112construct_atB7v160006IcJRKcEPcEEPT_S5_DpOT0_, symObjAddr: 0x9CE4, symBinAddr: 0x10000B778, symSize: 0x2C }
  - { offsetInCU: 0x1C390, offset: 0x1C390, size: 0x8, addend: 0x0, symName: __ZNSt3__15dequeIcNS_9allocatorIcEEE21_ConstructTransactionD2B7v160006Ev, symObjAddr: 0x9D10, symBinAddr: 0x10000B7A4, symSize: 0x54 }
  - { offsetInCU: 0x1C398, offset: 0x1C398, size: 0x8, addend: 0x0, symName: __ZNKSt3__114__split_bufferIPcNS_9allocatorIS1_EEE5beginB7v160006Ev, symObjAddr: 0x9D64, symBinAddr: 0x10000B7F8, symSize: 0x18 }
  - { offsetInCU: 0x1C3BF, offset: 0x1C3BF, size: 0x8, addend: 0x0, symName: __ZNKSt3__114__split_bufferIPcNS_9allocatorIS1_EEE5beginB7v160006Ev, symObjAddr: 0x9D64, symBinAddr: 0x10000B7F8, symSize: 0x18 }
  - { offsetInCU: 0x1C3C7, offset: 0x1C3C7, size: 0x8, addend: 0x0, symName: __ZNSt3__116__deque_iteratorIcPKcRS1_PKS2_lLl4096EEC1B7v160006ES5_S2_, symObjAddr: 0x9D7C, symBinAddr: 0x10000B810, symSize: 0x3C }
  - { offsetInCU: 0x1C3EB, offset: 0x1C3EB, size: 0x8, addend: 0x0, symName: __ZNSt3__116__deque_iteratorIcPKcRS1_PKS2_lLl4096EEC1B7v160006ES5_S2_, symObjAddr: 0x9D7C, symBinAddr: 0x10000B810, symSize: 0x3C }
  - { offsetInCU: 0x1C3F3, offset: 0x1C3F3, size: 0x8, addend: 0x0, symName: __ZNSt3__116__deque_iteratorIcPKcRS1_PKS2_lLl4096EEC2B7v160006ES5_S2_, symObjAddr: 0x9DB8, symBinAddr: 0x10000B84C, symSize: 0x2C }
  - { offsetInCU: 0x1C438, offset: 0x1C438, size: 0x8, addend: 0x0, symName: __ZNSt3__116__deque_iteratorIcPKcRS1_PKS2_lLl4096EEC2B7v160006ES5_S2_, symObjAddr: 0x9DB8, symBinAddr: 0x10000B84C, symSize: 0x2C }
  - { offsetInCU: 0x1C440, offset: 0x1C440, size: 0x8, addend: 0x0, symName: __ZNSt3__13mapIciNS_4lessIcEENS_9allocatorINS_4pairIKciEEEEEC2B7v160006Ev, symObjAddr: 0x9DE4, symBinAddr: 0x10000B878, symSize: 0x40 }
  - { offsetInCU: 0x1C486, offset: 0x1C486, size: 0x8, addend: 0x0, symName: __ZNSt3__13mapIciNS_4lessIcEENS_9allocatorINS_4pairIKciEEEEEC2B7v160006Ev, symObjAddr: 0x9DE4, symBinAddr: 0x10000B878, symSize: 0x40 }
  - { offsetInCU: 0x1C48E, offset: 0x1C48E, size: 0x8, addend: 0x0, symName: __ZNSt3__119__map_value_compareIcNS_12__value_typeIciEENS_4lessIcEELb1EEC1B7v160006ES4_, symObjAddr: 0x9E24, symBinAddr: 0x10000B8B8, symSize: 0x2C }
  - { offsetInCU: 0x1C4B5, offset: 0x1C4B5, size: 0x8, addend: 0x0, symName: __ZNSt3__119__map_value_compareIcNS_12__value_typeIciEENS_4lessIcEELb1EEC1B7v160006ES4_, symObjAddr: 0x9E24, symBinAddr: 0x10000B8B8, symSize: 0x2C }
  - { offsetInCU: 0x1C4BD, offset: 0x1C4BD, size: 0x8, addend: 0x0, symName: __ZNSt3__16__treeINS_12__value_typeIciEENS_19__map_value_compareIcS2_NS_4lessIcEELb1EEENS_9allocatorIS2_EEEC1ERKS6_, symObjAddr: 0x9E50, symBinAddr: 0x10000B8E4, symSize: 0x34 }
  - { offsetInCU: 0x1C4F3, offset: 0x1C4F3, size: 0x8, addend: 0x0, symName: __ZNSt3__16__treeINS_12__value_typeIciEENS_19__map_value_compareIcS2_NS_4lessIcEELb1EEENS_9allocatorIS2_EEEC1ERKS6_, symObjAddr: 0x9E50, symBinAddr: 0x10000B8E4, symSize: 0x34 }
  - { offsetInCU: 0x1C4FB, offset: 0x1C4FB, size: 0x8, addend: 0x0, symName: __ZNSt3__119__map_value_compareIcNS_12__value_typeIciEENS_4lessIcEELb1EEC2B7v160006ES4_, symObjAddr: 0x9E84, symBinAddr: 0x10000B918, symSize: 0x14 }
  - { offsetInCU: 0x1C533, offset: 0x1C533, size: 0x8, addend: 0x0, symName: __ZNSt3__119__map_value_compareIcNS_12__value_typeIciEENS_4lessIcEELb1EEC2B7v160006ES4_, symObjAddr: 0x9E84, symBinAddr: 0x10000B918, symSize: 0x14 }
  - { offsetInCU: 0x1C53B, offset: 0x1C53B, size: 0x8, addend: 0x0, symName: __ZNSt3__16__treeINS_12__value_typeIciEENS_19__map_value_compareIcS2_NS_4lessIcEELb1EEENS_9allocatorIS2_EEEC2ERKS6_, symObjAddr: 0x9E98, symBinAddr: 0x10000B92C, symSize: 0x7C }
  - { offsetInCU: 0x1C572, offset: 0x1C572, size: 0x8, addend: 0x0, symName: __ZNSt3__16__treeINS_12__value_typeIciEENS_19__map_value_compareIcS2_NS_4lessIcEELb1EEENS_9allocatorIS2_EEEC2ERKS6_, symObjAddr: 0x9E98, symBinAddr: 0x10000B92C, symSize: 0x7C }
  - { offsetInCU: 0x1C57A, offset: 0x1C57A, size: 0x8, addend: 0x0, symName: __ZNSt3__117__compressed_pairINS_15__tree_end_nodeIPNS_16__tree_node_baseIPvEEEENS_9allocatorINS_11__tree_nodeINS_12__value_typeIciEES3_EEEEEC1B7v160006ILb1EvEEv, symObjAddr: 0x9F14, symBinAddr: 0x10000B9A8, symSize: 0x2C }
  - { offsetInCU: 0x1C5B2, offset: 0x1C5B2, size: 0x8, addend: 0x0, symName: __ZNSt3__117__compressed_pairINS_15__tree_end_nodeIPNS_16__tree_node_baseIPvEEEENS_9allocatorINS_11__tree_nodeINS_12__value_typeIciEES3_EEEEEC1B7v160006ILb1EvEEv, symObjAddr: 0x9F14, symBinAddr: 0x10000B9A8, symSize: 0x2C }
  - { offsetInCU: 0x1C5BA, offset: 0x1C5BA, size: 0x8, addend: 0x0, symName: __ZNSt3__117__compressed_pairImNS_19__map_value_compareIcNS_12__value_typeIciEENS_4lessIcEELb1EEEEC1B7v160006IiRKS6_EEOT_OT0_, symObjAddr: 0x9F40, symBinAddr: 0x10000B9D4, symSize: 0x3C }
  - { offsetInCU: 0x1C5EC, offset: 0x1C5EC, size: 0x8, addend: 0x0, symName: __ZNSt3__117__compressed_pairImNS_19__map_value_compareIcNS_12__value_typeIciEENS_4lessIcEELb1EEEEC1B7v160006IiRKS6_EEOT_OT0_, symObjAddr: 0x9F40, symBinAddr: 0x10000B9D4, symSize: 0x3C }
  - { offsetInCU: 0x1C5F4, offset: 0x1C5F4, size: 0x8, addend: 0x0, symName: __ZNSt3__16__treeINS_12__value_typeIciEENS_19__map_value_compareIcS2_NS_4lessIcEELb1EEENS_9allocatorIS2_EEE10__end_nodeB7v160006Ev, symObjAddr: 0x9F7C, symBinAddr: 0x10000BA10, symSize: 0x2C }
  - { offsetInCU: 0x1C649, offset: 0x1C649, size: 0x8, addend: 0x0, symName: __ZNSt3__16__treeINS_12__value_typeIciEENS_19__map_value_compareIcS2_NS_4lessIcEELb1EEENS_9allocatorIS2_EEE10__end_nodeB7v160006Ev, symObjAddr: 0x9F7C, symBinAddr: 0x10000BA10, symSize: 0x2C }
  - { offsetInCU: 0x1C651, offset: 0x1C651, size: 0x8, addend: 0x0, symName: __ZNSt3__16__treeINS_12__value_typeIciEENS_19__map_value_compareIcS2_NS_4lessIcEELb1EEENS_9allocatorIS2_EEE12__begin_nodeB7v160006Ev, symObjAddr: 0x9FA8, symBinAddr: 0x10000BA3C, symSize: 0x14 }
  - { offsetInCU: 0x1C674, offset: 0x1C674, size: 0x8, addend: 0x0, symName: __ZNSt3__16__treeINS_12__value_typeIciEENS_19__map_value_compareIcS2_NS_4lessIcEELb1EEENS_9allocatorIS2_EEE12__begin_nodeB7v160006Ev, symObjAddr: 0x9FA8, symBinAddr: 0x10000BA3C, symSize: 0x14 }
  - { offsetInCU: 0x1C67C, offset: 0x1C67C, size: 0x8, addend: 0x0, symName: __ZNSt3__117__compressed_pairINS_15__tree_end_nodeIPNS_16__tree_node_baseIPvEEEENS_9allocatorINS_11__tree_nodeINS_12__value_typeIciEES3_EEEEEC2B7v160006ILb1EvEEv, symObjAddr: 0x9FBC, symBinAddr: 0x10000BA50, symSize: 0x34 }
  - { offsetInCU: 0x1C6A0, offset: 0x1C6A0, size: 0x8, addend: 0x0, symName: __ZNSt3__117__compressed_pairINS_15__tree_end_nodeIPNS_16__tree_node_baseIPvEEEENS_9allocatorINS_11__tree_nodeINS_12__value_typeIciEES3_EEEEEC2B7v160006ILb1EvEEv, symObjAddr: 0x9FBC, symBinAddr: 0x10000BA50, symSize: 0x34 }
  - { offsetInCU: 0x1C6A8, offset: 0x1C6A8, size: 0x8, addend: 0x0, symName: __ZNSt3__122__compressed_pair_elemINS_15__tree_end_nodeIPNS_16__tree_node_baseIPvEEEELi0ELb0EEC2B7v160006ENS_16__value_init_tagE, symObjAddr: 0x9FF0, symBinAddr: 0x10000BA84, symSize: 0x2C }
  - { offsetInCU: 0x1C6DA, offset: 0x1C6DA, size: 0x8, addend: 0x0, symName: __ZNSt3__122__compressed_pair_elemINS_15__tree_end_nodeIPNS_16__tree_node_baseIPvEEEELi0ELb0EEC2B7v160006ENS_16__value_init_tagE, symObjAddr: 0x9FF0, symBinAddr: 0x10000BA84, symSize: 0x2C }
  - { offsetInCU: 0x1C6E2, offset: 0x1C6E2, size: 0x8, addend: 0x0, symName: __ZNSt3__122__compressed_pair_elemINS_9allocatorINS_11__tree_nodeINS_12__value_typeIciEEPvEEEELi1ELb1EEC2B7v160006ENS_16__value_init_tagE, symObjAddr: 0xA01C, symBinAddr: 0x10000BAB0, symSize: 0x2C }
  - { offsetInCU: 0x1C713, offset: 0x1C713, size: 0x8, addend: 0x0, symName: __ZNSt3__122__compressed_pair_elemINS_9allocatorINS_11__tree_nodeINS_12__value_typeIciEEPvEEEELi1ELb1EEC2B7v160006ENS_16__value_init_tagE, symObjAddr: 0xA01C, symBinAddr: 0x10000BAB0, symSize: 0x2C }
  - { offsetInCU: 0x1C71B, offset: 0x1C71B, size: 0x8, addend: 0x0, symName: __ZNSt3__115__tree_end_nodeIPNS_16__tree_node_baseIPvEEEC1B7v160006Ev, symObjAddr: 0xA048, symBinAddr: 0x10000BADC, symSize: 0x2C }
  - { offsetInCU: 0x1C74C, offset: 0x1C74C, size: 0x8, addend: 0x0, symName: __ZNSt3__115__tree_end_nodeIPNS_16__tree_node_baseIPvEEEC1B7v160006Ev, symObjAddr: 0xA048, symBinAddr: 0x10000BADC, symSize: 0x2C }
  - { offsetInCU: 0x1C754, offset: 0x1C754, size: 0x8, addend: 0x0, symName: __ZNSt3__115__tree_end_nodeIPNS_16__tree_node_baseIPvEEEC2B7v160006Ev, symObjAddr: 0xA074, symBinAddr: 0x10000BB08, symSize: 0x18 }
  - { offsetInCU: 0x1C77B, offset: 0x1C77B, size: 0x8, addend: 0x0, symName: __ZNSt3__115__tree_end_nodeIPNS_16__tree_node_baseIPvEEEC2B7v160006Ev, symObjAddr: 0xA074, symBinAddr: 0x10000BB08, symSize: 0x18 }
  - { offsetInCU: 0x1C783, offset: 0x1C783, size: 0x8, addend: 0x0, symName: __ZNSt3__19allocatorINS_11__tree_nodeINS_12__value_typeIciEEPvEEEC2B7v160006Ev, symObjAddr: 0xA08C, symBinAddr: 0x10000BB20, symSize: 0x2C }
  - { offsetInCU: 0x1C7AB, offset: 0x1C7AB, size: 0x8, addend: 0x0, symName: __ZNSt3__19allocatorINS_11__tree_nodeINS_12__value_typeIciEEPvEEEC2B7v160006Ev, symObjAddr: 0xA08C, symBinAddr: 0x10000BB20, symSize: 0x2C }
  - { offsetInCU: 0x1C7B3, offset: 0x1C7B3, size: 0x8, addend: 0x0, symName: __ZNSt3__116__non_trivial_ifILb1ENS_9allocatorINS_11__tree_nodeINS_12__value_typeIciEEPvEEEEEC2B7v160006Ev, symObjAddr: 0xA0B8, symBinAddr: 0x10000BB4C, symSize: 0x14 }
  - { offsetInCU: 0x1C7DA, offset: 0x1C7DA, size: 0x8, addend: 0x0, symName: __ZNSt3__116__non_trivial_ifILb1ENS_9allocatorINS_11__tree_nodeINS_12__value_typeIciEEPvEEEEEC2B7v160006Ev, symObjAddr: 0xA0B8, symBinAddr: 0x10000BB4C, symSize: 0x14 }
  - { offsetInCU: 0x1C7E2, offset: 0x1C7E2, size: 0x8, addend: 0x0, symName: __ZNSt3__117__compressed_pairImNS_19__map_value_compareIcNS_12__value_typeIciEENS_4lessIcEELb1EEEEC2B7v160006IiRKS6_EEOT_OT0_, symObjAddr: 0xA0CC, symBinAddr: 0x10000BB60, symSize: 0x44 }
  - { offsetInCU: 0x1C80A, offset: 0x1C80A, size: 0x8, addend: 0x0, symName: __ZNSt3__117__compressed_pairImNS_19__map_value_compareIcNS_12__value_typeIciEENS_4lessIcEELb1EEEEC2B7v160006IiRKS6_EEOT_OT0_, symObjAddr: 0xA0CC, symBinAddr: 0x10000BB60, symSize: 0x44 }
  - { offsetInCU: 0x1C812, offset: 0x1C812, size: 0x8, addend: 0x0, symName: __ZNSt3__122__compressed_pair_elemINS_19__map_value_compareIcNS_12__value_typeIciEENS_4lessIcEELb1EEELi1ELb1EEC2B7v160006IRKS6_vEEOT_, symObjAddr: 0xA110, symBinAddr: 0x10000BBA4, symSize: 0x18 }
  - { offsetInCU: 0x1C867, offset: 0x1C867, size: 0x8, addend: 0x0, symName: __ZNSt3__122__compressed_pair_elemINS_19__map_value_compareIcNS_12__value_typeIciEENS_4lessIcEELb1EEELi1ELb1EEC2B7v160006IRKS6_vEEOT_, symObjAddr: 0xA110, symBinAddr: 0x10000BBA4, symSize: 0x18 }
  - { offsetInCU: 0x1C86F, offset: 0x1C86F, size: 0x8, addend: 0x0, symName: __ZNSt3__114pointer_traitsIPNS_15__tree_end_nodeIPNS_16__tree_node_baseIPvEEEEE10pointer_toB7v160006ERS6_, symObjAddr: 0xA128, symBinAddr: 0x10000BBBC, symSize: 0x14 }
  - { offsetInCU: 0x1C8AF, offset: 0x1C8AF, size: 0x8, addend: 0x0, symName: __ZNSt3__114pointer_traitsIPNS_15__tree_end_nodeIPNS_16__tree_node_baseIPvEEEEE10pointer_toB7v160006ERS6_, symObjAddr: 0xA128, symBinAddr: 0x10000BBBC, symSize: 0x14 }
  - { offsetInCU: 0x1C8B7, offset: 0x1C8B7, size: 0x8, addend: 0x0, symName: __ZNSt3__117__compressed_pairINS_15__tree_end_nodeIPNS_16__tree_node_baseIPvEEEENS_9allocatorINS_11__tree_nodeINS_12__value_typeIciEES3_EEEEE5firstB7v160006Ev, symObjAddr: 0xA13C, symBinAddr: 0x10000BBD0, symSize: 0x24 }
  - { offsetInCU: 0x1C8D7, offset: 0x1C8D7, size: 0x8, addend: 0x0, symName: __ZNSt3__117__compressed_pairINS_15__tree_end_nodeIPNS_16__tree_node_baseIPvEEEENS_9allocatorINS_11__tree_nodeINS_12__value_typeIciEES3_EEEEE5firstB7v160006Ev, symObjAddr: 0xA13C, symBinAddr: 0x10000BBD0, symSize: 0x24 }
  - { offsetInCU: 0x1C8DF, offset: 0x1C8DF, size: 0x8, addend: 0x0, symName: __ZNSt3__122__compressed_pair_elemINS_15__tree_end_nodeIPNS_16__tree_node_baseIPvEEEELi0ELb0EE5__getB7v160006Ev, symObjAddr: 0xA160, symBinAddr: 0x10000BBF4, symSize: 0x14 }
  - { offsetInCU: 0x1C902, offset: 0x1C902, size: 0x8, addend: 0x0, symName: __ZNSt3__122__compressed_pair_elemINS_15__tree_end_nodeIPNS_16__tree_node_baseIPvEEEELi0ELb0EE5__getB7v160006Ev, symObjAddr: 0xA160, symBinAddr: 0x10000BBF4, symSize: 0x14 }
  - { offsetInCU: 0x1C90A, offset: 0x1C90A, size: 0x8, addend: 0x0, symName: __ZNSt3__13mapIciNS_4lessIcEENS_9allocatorINS_4pairIKciEEEEED2B7v160006Ev, symObjAddr: 0xA174, symBinAddr: 0x10000BC08, symSize: 0x2C }
  - { offsetInCU: 0x1C92E, offset: 0x1C92E, size: 0x8, addend: 0x0, symName: __ZNSt3__13mapIciNS_4lessIcEENS_9allocatorINS_4pairIKciEEEEED2B7v160006Ev, symObjAddr: 0xA174, symBinAddr: 0x10000BC08, symSize: 0x2C }
  - { offsetInCU: 0x1C936, offset: 0x1C936, size: 0x8, addend: 0x0, symName: __ZNSt3__16__treeINS_12__value_typeIciEENS_19__map_value_compareIcS2_NS_4lessIcEELb1EEENS_9allocatorIS2_EEED1Ev, symObjAddr: 0xA1A0, symBinAddr: 0x10000BC34, symSize: 0x2C }
  - { offsetInCU: 0x1C95D, offset: 0x1C95D, size: 0x8, addend: 0x0, symName: __ZNSt3__16__treeINS_12__value_typeIciEENS_19__map_value_compareIcS2_NS_4lessIcEELb1EEENS_9allocatorIS2_EEED1Ev, symObjAddr: 0xA1A0, symBinAddr: 0x10000BC34, symSize: 0x2C }
  - { offsetInCU: 0x1C965, offset: 0x1C965, size: 0x8, addend: 0x0, symName: __ZNSt3__16__treeINS_12__value_typeIciEENS_19__map_value_compareIcS2_NS_4lessIcEELb1EEENS_9allocatorIS2_EEED2Ev, symObjAddr: 0xA1CC, symBinAddr: 0x10000BC60, symSize: 0x38 }
  - { offsetInCU: 0x1C98E, offset: 0x1C98E, size: 0x8, addend: 0x0, symName: __ZNSt3__16__treeINS_12__value_typeIciEENS_19__map_value_compareIcS2_NS_4lessIcEELb1EEENS_9allocatorIS2_EEED2Ev, symObjAddr: 0xA1CC, symBinAddr: 0x10000BC60, symSize: 0x38 }
  - { offsetInCU: 0x1C996, offset: 0x1C996, size: 0x8, addend: 0x0, symName: __ZNSt3__16__treeINS_12__value_typeIciEENS_19__map_value_compareIcS2_NS_4lessIcEELb1EEENS_9allocatorIS2_EEE7destroyEPNS_11__tree_nodeIS2_PvEE, symObjAddr: 0xA204, symBinAddr: 0x10000BC98, symSize: 0xAC }
  - { offsetInCU: 0x1C9BF, offset: 0x1C9BF, size: 0x8, addend: 0x0, symName: __ZNSt3__16__treeINS_12__value_typeIciEENS_19__map_value_compareIcS2_NS_4lessIcEELb1EEENS_9allocatorIS2_EEE7destroyEPNS_11__tree_nodeIS2_PvEE, symObjAddr: 0xA204, symBinAddr: 0x10000BC98, symSize: 0xAC }
  - { offsetInCU: 0x1C9C7, offset: 0x1C9C7, size: 0x8, addend: 0x0, symName: __ZNKSt3__16__treeINS_12__value_typeIciEENS_19__map_value_compareIcS2_NS_4lessIcEELb1EEENS_9allocatorIS2_EEE6__rootB7v160006Ev, symObjAddr: 0xA2B0, symBinAddr: 0x10000BD44, symSize: 0x28 }
  - { offsetInCU: 0x1CA10, offset: 0x1CA10, size: 0x8, addend: 0x0, symName: __ZNKSt3__16__treeINS_12__value_typeIciEENS_19__map_value_compareIcS2_NS_4lessIcEELb1EEENS_9allocatorIS2_EEE6__rootB7v160006Ev, symObjAddr: 0xA2B0, symBinAddr: 0x10000BD44, symSize: 0x28 }
  - { offsetInCU: 0x1CA18, offset: 0x1CA18, size: 0x8, addend: 0x0, symName: __ZNSt3__16__treeINS_12__value_typeIciEENS_19__map_value_compareIcS2_NS_4lessIcEELb1EEENS_9allocatorIS2_EEE12__node_allocB7v160006Ev, symObjAddr: 0xA2D8, symBinAddr: 0x10000BD6C, symSize: 0x28 }
  - { offsetInCU: 0x1CA3B, offset: 0x1CA3B, size: 0x8, addend: 0x0, symName: __ZNSt3__16__treeINS_12__value_typeIciEENS_19__map_value_compareIcS2_NS_4lessIcEELb1EEENS_9allocatorIS2_EEE12__node_allocB7v160006Ev, symObjAddr: 0xA2D8, symBinAddr: 0x10000BD6C, symSize: 0x28 }
  - { offsetInCU: 0x1CA43, offset: 0x1CA43, size: 0x8, addend: 0x0, symName: __ZNSt3__116allocator_traitsINS_9allocatorINS_11__tree_nodeINS_12__value_typeIciEEPvEEEEE7destroyB7v160006INS_4pairIKciEEvvEEvRS7_PT_, symObjAddr: 0xA300, symBinAddr: 0x10000BD94, symSize: 0x28 }
  - { offsetInCU: 0x1CA66, offset: 0x1CA66, size: 0x8, addend: 0x0, symName: __ZNSt3__116allocator_traitsINS_9allocatorINS_11__tree_nodeINS_12__value_typeIciEEPvEEEEE7destroyB7v160006INS_4pairIKciEEvvEEvRS7_PT_, symObjAddr: 0xA300, symBinAddr: 0x10000BD94, symSize: 0x28 }
  - { offsetInCU: 0x1CA6E, offset: 0x1CA6E, size: 0x8, addend: 0x0, symName: __ZNSt3__122__tree_key_value_typesINS_12__value_typeIciEEE9__get_ptrB7v160006ERS2_, symObjAddr: 0xA328, symBinAddr: 0x10000BDBC, symSize: 0x24 }
  - { offsetInCU: 0x1CAA5, offset: 0x1CAA5, size: 0x8, addend: 0x0, symName: __ZNSt3__122__tree_key_value_typesINS_12__value_typeIciEEE9__get_ptrB7v160006ERS2_, symObjAddr: 0xA328, symBinAddr: 0x10000BDBC, symSize: 0x24 }
  - { offsetInCU: 0x1CAAD, offset: 0x1CAAD, size: 0x8, addend: 0x0, symName: __ZNSt3__116allocator_traitsINS_9allocatorINS_11__tree_nodeINS_12__value_typeIciEEPvEEEEE10deallocateB7v160006ERS7_PS6_m, symObjAddr: 0xA34C, symBinAddr: 0x10000BDE0, symSize: 0x34 }
  - { offsetInCU: 0x1CACD, offset: 0x1CACD, size: 0x8, addend: 0x0, symName: __ZNSt3__116allocator_traitsINS_9allocatorINS_11__tree_nodeINS_12__value_typeIciEEPvEEEEE10deallocateB7v160006ERS7_PS6_m, symObjAddr: 0xA34C, symBinAddr: 0x10000BDE0, symSize: 0x34 }
  - { offsetInCU: 0x1CAD5, offset: 0x1CAD5, size: 0x8, addend: 0x0, symName: __ZNSt3__117__compressed_pairINS_15__tree_end_nodeIPNS_16__tree_node_baseIPvEEEENS_9allocatorINS_11__tree_nodeINS_12__value_typeIciEES3_EEEEE6secondB7v160006Ev, symObjAddr: 0xA380, symBinAddr: 0x10000BE14, symSize: 0x24 }
  - { offsetInCU: 0x1CB13, offset: 0x1CB13, size: 0x8, addend: 0x0, symName: __ZNSt3__117__compressed_pairINS_15__tree_end_nodeIPNS_16__tree_node_baseIPvEEEENS_9allocatorINS_11__tree_nodeINS_12__value_typeIciEES3_EEEEE6secondB7v160006Ev, symObjAddr: 0xA380, symBinAddr: 0x10000BE14, symSize: 0x24 }
  - { offsetInCU: 0x1CB1B, offset: 0x1CB1B, size: 0x8, addend: 0x0, symName: __ZNSt3__122__compressed_pair_elemINS_9allocatorINS_11__tree_nodeINS_12__value_typeIciEEPvEEEELi1ELb1EE5__getB7v160006Ev, symObjAddr: 0xA3A4, symBinAddr: 0x10000BE38, symSize: 0x14 }
  - { offsetInCU: 0x1CB3E, offset: 0x1CB3E, size: 0x8, addend: 0x0, symName: __ZNSt3__122__compressed_pair_elemINS_9allocatorINS_11__tree_nodeINS_12__value_typeIciEEPvEEEELi1ELb1EE5__getB7v160006Ev, symObjAddr: 0xA3A4, symBinAddr: 0x10000BE38, symSize: 0x14 }
  - { offsetInCU: 0x1CB46, offset: 0x1CB46, size: 0x8, addend: 0x0, symName: __ZNSt3__110destroy_atB7v160006INS_4pairIKciEELi0EEEvPT_, symObjAddr: 0xA3B8, symBinAddr: 0x10000BE4C, symSize: 0x24 }
  - { offsetInCU: 0x1CB6A, offset: 0x1CB6A, size: 0x8, addend: 0x0, symName: __ZNSt3__112__value_typeIciE11__get_valueB7v160006Ev, symObjAddr: 0xA3EC, symBinAddr: 0x10000BE80, symSize: 0x24 }
  - { offsetInCU: 0x1CB72, offset: 0x1CB72, size: 0x8, addend: 0x0, symName: __ZNSt3__17launderB7v160006INS_4pairIKciEEEEPT_S5_, symObjAddr: 0xA410, symBinAddr: 0x10000BEA4, symSize: 0x24 }
  - { offsetInCU: 0x1CB95, offset: 0x1CB95, size: 0x8, addend: 0x0, symName: __ZNSt3__19allocatorINS_11__tree_nodeINS_12__value_typeIciEEPvEEE10deallocateB7v160006EPS5_m, symObjAddr: 0xA448, symBinAddr: 0x10000BEDC, symSize: 0x44 }
  - { offsetInCU: 0x1CB9D, offset: 0x1CB9D, size: 0x8, addend: 0x0, symName: __ZNKSt3__16__treeINS_12__value_typeIciEENS_19__map_value_compareIcS2_NS_4lessIcEELb1EEENS_9allocatorIS2_EEE10__end_nodeB7v160006Ev, symObjAddr: 0xA48C, symBinAddr: 0x10000BF20, symSize: 0x2C }
  - { offsetInCU: 0x1CBDC, offset: 0x1CBDC, size: 0x8, addend: 0x0, symName: __ZNKSt3__16__treeINS_12__value_typeIciEENS_19__map_value_compareIcS2_NS_4lessIcEELb1EEENS_9allocatorIS2_EEE10__end_nodeB7v160006Ev, symObjAddr: 0xA48C, symBinAddr: 0x10000BF20, symSize: 0x2C }
  - { offsetInCU: 0x1CBE4, offset: 0x1CBE4, size: 0x8, addend: 0x0, symName: __ZNKSt3__117__compressed_pairINS_15__tree_end_nodeIPNS_16__tree_node_baseIPvEEEENS_9allocatorINS_11__tree_nodeINS_12__value_typeIciEES3_EEEEE5firstB7v160006Ev, symObjAddr: 0xA4B8, symBinAddr: 0x10000BF4C, symSize: 0x24 }
  - { offsetInCU: 0x1CC07, offset: 0x1CC07, size: 0x8, addend: 0x0, symName: __ZNKSt3__117__compressed_pairINS_15__tree_end_nodeIPNS_16__tree_node_baseIPvEEEENS_9allocatorINS_11__tree_nodeINS_12__value_typeIciEES3_EEEEE5firstB7v160006Ev, symObjAddr: 0xA4B8, symBinAddr: 0x10000BF4C, symSize: 0x24 }
  - { offsetInCU: 0x1CC0F, offset: 0x1CC0F, size: 0x8, addend: 0x0, symName: __ZNKSt3__122__compressed_pair_elemINS_15__tree_end_nodeIPNS_16__tree_node_baseIPvEEEELi0ELb0EE5__getB7v160006Ev, symObjAddr: 0xA4DC, symBinAddr: 0x10000BF70, symSize: 0x14 }
  - { offsetInCU: 0x1CC32, offset: 0x1CC32, size: 0x8, addend: 0x0, symName: __ZNKSt3__122__compressed_pair_elemINS_15__tree_end_nodeIPNS_16__tree_node_baseIPvEEEELi0ELb0EE5__getB7v160006Ev, symObjAddr: 0xA4DC, symBinAddr: 0x10000BF70, symSize: 0x14 }
  - { offsetInCU: 0x1CC3A, offset: 0x1CC3A, size: 0x8, addend: 0x0, symName: __ZNKSt3__15dequeIcNS_9allocatorIcEEE5emptyB7v160006Ev, symObjAddr: 0xA4F0, symBinAddr: 0x10000BF84, symSize: 0x30 }
  - { offsetInCU: 0x1CC5E, offset: 0x1CC5E, size: 0x8, addend: 0x0, symName: __ZNKSt3__15dequeIcNS_9allocatorIcEEE5emptyB7v160006Ev, symObjAddr: 0xA4F0, symBinAddr: 0x10000BF84, symSize: 0x30 }
  - { offsetInCU: 0x1CC66, offset: 0x1CC66, size: 0x8, addend: 0x0, symName: __ZNSt3__15dequeIcNS_9allocatorIcEEE4backEv, symObjAddr: 0xA520, symBinAddr: 0x10000BFB4, symSize: 0x68 }
  - { offsetInCU: 0x1CC89, offset: 0x1CC89, size: 0x8, addend: 0x0, symName: __ZNSt3__15dequeIcNS_9allocatorIcEEE4backEv, symObjAddr: 0xA520, symBinAddr: 0x10000BFB4, symSize: 0x68 }
  - { offsetInCU: 0x1CC91, offset: 0x1CC91, size: 0x8, addend: 0x0, symName: __ZNSt3__16__treeINS_12__value_typeIciEENS_19__map_value_compareIcS2_NS_4lessIcEELb1EEENS_9allocatorIS2_EEE25__emplace_unique_key_argsIcJRKNS_21piecewise_construct_tENS_5tupleIJRKcEEENSE_IJEEEEEENS_4pairINS_15__tree_iteratorIS2_PNS_11__tree_nodeIS2_PvEElEEbEERKT_DpOT0_, symObjAddr: 0xA588, symBinAddr: 0x10000C01C, symSize: 0x100 }
  - { offsetInCU: 0x1CCDD, offset: 0x1CCDD, size: 0x8, addend: 0x0, symName: __ZNSt3__16__treeINS_12__value_typeIciEENS_19__map_value_compareIcS2_NS_4lessIcEELb1EEENS_9allocatorIS2_EEE25__emplace_unique_key_argsIcJRKNS_21piecewise_construct_tENS_5tupleIJRKcEEENSE_IJEEEEEENS_4pairINS_15__tree_iteratorIS2_PNS_11__tree_nodeIS2_PvEElEEbEERKT_DpOT0_, symObjAddr: 0xA588, symBinAddr: 0x10000C01C, symSize: 0x100 }
  - { offsetInCU: 0x1CCE5, offset: 0x1CCE5, size: 0x8, addend: 0x0, symName: __ZNSt3__116forward_as_tupleB7v160006IJRKcEEENS_5tupleIJDpOT_EEES6_, symObjAddr: 0xA688, symBinAddr: 0x10000C11C, symSize: 0x2C }
  - { offsetInCU: 0x1CDB8, offset: 0x1CDB8, size: 0x8, addend: 0x0, symName: __ZNKSt3__115__tree_iteratorINS_12__value_typeIciEEPNS_11__tree_nodeIS2_PvEElEptB7v160006Ev, symObjAddr: 0xA6B8, symBinAddr: 0x10000C14C, symSize: 0x2C }
  - { offsetInCU: 0x1CDC0, offset: 0x1CDC0, size: 0x8, addend: 0x0, symName: __ZNSt3__16__treeINS_12__value_typeIciEENS_19__map_value_compareIcS2_NS_4lessIcEELb1EEENS_9allocatorIS2_EEE12__find_equalIcEERPNS_16__tree_node_baseIPvEERPNS_15__tree_end_nodeISE_EERKT_, symObjAddr: 0xA6E4, symBinAddr: 0x10000C178, symSize: 0x184 }
  - { offsetInCU: 0x1CDE3, offset: 0x1CDE3, size: 0x8, addend: 0x0, symName: __ZNSt3__16__treeINS_12__value_typeIciEENS_19__map_value_compareIcS2_NS_4lessIcEELb1EEENS_9allocatorIS2_EEE12__find_equalIcEERPNS_16__tree_node_baseIPvEERPNS_15__tree_end_nodeISE_EERKT_, symObjAddr: 0xA6E4, symBinAddr: 0x10000C178, symSize: 0x184 }
  - { offsetInCU: 0x1CDEB, offset: 0x1CDEB, size: 0x8, addend: 0x0, symName: __ZNSt3__16__treeINS_12__value_typeIciEENS_19__map_value_compareIcS2_NS_4lessIcEELb1EEENS_9allocatorIS2_EEE16__construct_nodeIJRKNS_21piecewise_construct_tENS_5tupleIJRKcEEENSE_IJEEEEEENS_10unique_ptrINS_11__tree_nodeIS2_PvEENS_22__tree_node_destructorINS7_ISM_EEEEEEDpOT_, symObjAddr: 0xA868, symBinAddr: 0x10000C2FC, symSize: 0x120 }
  - { offsetInCU: 0x1CE55, offset: 0x1CE55, size: 0x8, addend: 0x0, symName: __ZNSt3__16__treeINS_12__value_typeIciEENS_19__map_value_compareIcS2_NS_4lessIcEELb1EEENS_9allocatorIS2_EEE16__construct_nodeIJRKNS_21piecewise_construct_tENS_5tupleIJRKcEEENSE_IJEEEEEENS_10unique_ptrINS_11__tree_nodeIS2_PvEENS_22__tree_node_destructorINS7_ISM_EEEEEEDpOT_, symObjAddr: 0xA868, symBinAddr: 0x10000C2FC, symSize: 0x120 }
  - { offsetInCU: 0x1CE5D, offset: 0x1CE5D, size: 0x8, addend: 0x0, symName: __ZNSt3__16__treeINS_12__value_typeIciEENS_19__map_value_compareIcS2_NS_4lessIcEELb1EEENS_9allocatorIS2_EEE16__insert_node_atEPNS_15__tree_end_nodeIPNS_16__tree_node_baseIPvEEEERSE_SE_, symObjAddr: 0xA988, symBinAddr: 0x10000C41C, symSize: 0xCC }
  - { offsetInCU: 0x1CEE3, offset: 0x1CEE3, size: 0x8, addend: 0x0, symName: __ZNSt3__16__treeINS_12__value_typeIciEENS_19__map_value_compareIcS2_NS_4lessIcEELb1EEENS_9allocatorIS2_EEE16__insert_node_atEPNS_15__tree_end_nodeIPNS_16__tree_node_baseIPvEEEERSE_SE_, symObjAddr: 0xA988, symBinAddr: 0x10000C41C, symSize: 0xCC }
  - { offsetInCU: 0x1CEEB, offset: 0x1CEEB, size: 0x8, addend: 0x0, symName: __ZNKSt3__110unique_ptrINS_11__tree_nodeINS_12__value_typeIciEEPvEENS_22__tree_node_destructorINS_9allocatorIS5_EEEEE3getB7v160006Ev, symObjAddr: 0xAA54, symBinAddr: 0x10000C4E8, symSize: 0x28 }
  - { offsetInCU: 0x1CF3D, offset: 0x1CF3D, size: 0x8, addend: 0x0, symName: __ZNKSt3__110unique_ptrINS_11__tree_nodeINS_12__value_typeIciEEPvEENS_22__tree_node_destructorINS_9allocatorIS5_EEEEE3getB7v160006Ev, symObjAddr: 0xAA54, symBinAddr: 0x10000C4E8, symSize: 0x28 }
  - { offsetInCU: 0x1CF45, offset: 0x1CF45, size: 0x8, addend: 0x0, symName: __ZNSt3__110unique_ptrINS_11__tree_nodeINS_12__value_typeIciEEPvEENS_22__tree_node_destructorINS_9allocatorIS5_EEEEE7releaseB7v160006Ev, symObjAddr: 0xAA7C, symBinAddr: 0x10000C510, symSize: 0x44 }
  - { offsetInCU: 0x1CF68, offset: 0x1CF68, size: 0x8, addend: 0x0, symName: __ZNSt3__110unique_ptrINS_11__tree_nodeINS_12__value_typeIciEEPvEENS_22__tree_node_destructorINS_9allocatorIS5_EEEEE7releaseB7v160006Ev, symObjAddr: 0xAA7C, symBinAddr: 0x10000C510, symSize: 0x44 }
  - { offsetInCU: 0x1CF70, offset: 0x1CF70, size: 0x8, addend: 0x0, symName: __ZNSt3__110unique_ptrINS_11__tree_nodeINS_12__value_typeIciEEPvEENS_22__tree_node_destructorINS_9allocatorIS5_EEEEED1B7v160006Ev, symObjAddr: 0xAAC0, symBinAddr: 0x10000C554, symSize: 0x2C }
  - { offsetInCU: 0x1CFA2, offset: 0x1CFA2, size: 0x8, addend: 0x0, symName: __ZNSt3__110unique_ptrINS_11__tree_nodeINS_12__value_typeIciEEPvEENS_22__tree_node_destructorINS_9allocatorIS5_EEEEED1B7v160006Ev, symObjAddr: 0xAAC0, symBinAddr: 0x10000C554, symSize: 0x2C }
  - { offsetInCU: 0x1CFAA, offset: 0x1CFAA, size: 0x8, addend: 0x0, symName: __ZNSt3__115__tree_iteratorINS_12__value_typeIciEEPNS_11__tree_nodeIS2_PvEElEC1B7v160006ES6_, symObjAddr: 0xAAEC, symBinAddr: 0x10000C580, symSize: 0x34 }
  - { offsetInCU: 0x1CFD1, offset: 0x1CFD1, size: 0x8, addend: 0x0, symName: __ZNSt3__115__tree_iteratorINS_12__value_typeIciEEPNS_11__tree_nodeIS2_PvEElEC1B7v160006ES6_, symObjAddr: 0xAAEC, symBinAddr: 0x10000C580, symSize: 0x34 }
  - { offsetInCU: 0x1CFD9, offset: 0x1CFD9, size: 0x8, addend: 0x0, symName: __ZNSt3__14pairINS_15__tree_iteratorINS_12__value_typeIciEEPNS_11__tree_nodeIS3_PvEElEEbEC1B7v160006IS8_RbLS5_0EEEOT_OT0_, symObjAddr: 0xAB20, symBinAddr: 0x10000C5B4, symSize: 0x3C }
  - { offsetInCU: 0x1D01B, offset: 0x1D01B, size: 0x8, addend: 0x0, symName: __ZNSt3__14pairINS_15__tree_iteratorINS_12__value_typeIciEEPNS_11__tree_nodeIS3_PvEElEEbEC1B7v160006IS8_RbLS5_0EEEOT_OT0_, symObjAddr: 0xAB20, symBinAddr: 0x10000C5B4, symSize: 0x3C }
  - { offsetInCU: 0x1D023, offset: 0x1D023, size: 0x8, addend: 0x0, symName: __ZNKSt3__16__treeINS_12__value_typeIciEENS_19__map_value_compareIcS2_NS_4lessIcEELb1EEENS_9allocatorIS2_EEE10__root_ptrEv, symObjAddr: 0xAB5C, symBinAddr: 0x10000C5F0, symSize: 0x24 }
  - { offsetInCU: 0x1D07E, offset: 0x1D07E, size: 0x8, addend: 0x0, symName: __ZNKSt3__16__treeINS_12__value_typeIciEENS_19__map_value_compareIcS2_NS_4lessIcEELb1EEENS_9allocatorIS2_EEE10__root_ptrEv, symObjAddr: 0xAB5C, symBinAddr: 0x10000C5F0, symSize: 0x24 }
  - { offsetInCU: 0x1D086, offset: 0x1D086, size: 0x8, addend: 0x0, symName: __ZNSt3__16__treeINS_12__value_typeIciEENS_19__map_value_compareIcS2_NS_4lessIcEELb1EEENS_9allocatorIS2_EEE10value_compB7v160006Ev, symObjAddr: 0xAB80, symBinAddr: 0x10000C614, symSize: 0x28 }
  - { offsetInCU: 0x1D0A9, offset: 0x1D0A9, size: 0x8, addend: 0x0, symName: __ZNSt3__16__treeINS_12__value_typeIciEENS_19__map_value_compareIcS2_NS_4lessIcEELb1EEENS_9allocatorIS2_EEE10value_compB7v160006Ev, symObjAddr: 0xAB80, symBinAddr: 0x10000C614, symSize: 0x28 }
  - { offsetInCU: 0x1D0B1, offset: 0x1D0B1, size: 0x8, addend: 0x0, symName: __ZNKSt3__119__map_value_compareIcNS_12__value_typeIciEENS_4lessIcEELb1EEclB7v160006ERKcRKS2_, symObjAddr: 0xABA8, symBinAddr: 0x10000C63C, symSize: 0x50 }
  - { offsetInCU: 0x1D0D4, offset: 0x1D0D4, size: 0x8, addend: 0x0, symName: __ZNKSt3__119__map_value_compareIcNS_12__value_typeIciEENS_4lessIcEELb1EEclB7v160006ERKcRKS2_, symObjAddr: 0xABA8, symBinAddr: 0x10000C63C, symSize: 0x50 }
  - { offsetInCU: 0x1D0DC, offset: 0x1D0DC, size: 0x8, addend: 0x0, symName: __ZNKSt3__119__map_value_compareIcNS_12__value_typeIciEENS_4lessIcEELb1EEclB7v160006ERKS2_RKc, symObjAddr: 0xABF8, symBinAddr: 0x10000C68C, symSize: 0x48 }
  - { offsetInCU: 0x1D11D, offset: 0x1D11D, size: 0x8, addend: 0x0, symName: __ZNKSt3__119__map_value_compareIcNS_12__value_typeIciEENS_4lessIcEELb1EEclB7v160006ERKS2_RKc, symObjAddr: 0xABF8, symBinAddr: 0x10000C68C, symSize: 0x48 }
  - { offsetInCU: 0x1D125, offset: 0x1D125, size: 0x8, addend: 0x0, symName: __ZNSt3__117__compressed_pairImNS_19__map_value_compareIcNS_12__value_typeIciEENS_4lessIcEELb1EEEE6secondB7v160006Ev, symObjAddr: 0xAC40, symBinAddr: 0x10000C6D4, symSize: 0x24 }
  - { offsetInCU: 0x1D166, offset: 0x1D166, size: 0x8, addend: 0x0, symName: __ZNSt3__117__compressed_pairImNS_19__map_value_compareIcNS_12__value_typeIciEENS_4lessIcEELb1EEEE6secondB7v160006Ev, symObjAddr: 0xAC40, symBinAddr: 0x10000C6D4, symSize: 0x24 }
  - { offsetInCU: 0x1D16E, offset: 0x1D16E, size: 0x8, addend: 0x0, symName: __ZNSt3__122__compressed_pair_elemINS_19__map_value_compareIcNS_12__value_typeIciEENS_4lessIcEELb1EEELi1ELb1EE5__getB7v160006Ev, symObjAddr: 0xAC64, symBinAddr: 0x10000C6F8, symSize: 0x14 }
  - { offsetInCU: 0x1D191, offset: 0x1D191, size: 0x8, addend: 0x0, symName: __ZNSt3__122__compressed_pair_elemINS_19__map_value_compareIcNS_12__value_typeIciEENS_4lessIcEELb1EEELi1ELb1EE5__getB7v160006Ev, symObjAddr: 0xAC64, symBinAddr: 0x10000C6F8, symSize: 0x14 }
  - { offsetInCU: 0x1D199, offset: 0x1D199, size: 0x8, addend: 0x0, symName: __ZNKSt3__14lessIcEclB7v160006ERKcS3_, symObjAddr: 0xAC78, symBinAddr: 0x10000C70C, symSize: 0x34 }
  - { offsetInCU: 0x1D1BD, offset: 0x1D1BD, size: 0x8, addend: 0x0, symName: __ZNKSt3__14lessIcEclB7v160006ERKcS3_, symObjAddr: 0xAC78, symBinAddr: 0x10000C70C, symSize: 0x34 }
  - { offsetInCU: 0x1D1C5, offset: 0x1D1C5, size: 0x8, addend: 0x0, symName: __ZNKSt3__112__value_typeIciE11__get_valueB7v160006Ev, symObjAddr: 0xACAC, symBinAddr: 0x10000C740, symSize: 0x24 }
  - { offsetInCU: 0x1D207, offset: 0x1D207, size: 0x8, addend: 0x0, symName: __ZNKSt3__112__value_typeIciE11__get_valueB7v160006Ev, symObjAddr: 0xACAC, symBinAddr: 0x10000C740, symSize: 0x24 }
  - { offsetInCU: 0x1D20F, offset: 0x1D20F, size: 0x8, addend: 0x0, symName: __ZNSt3__17launderB7v160006IKNS_4pairIKciEEEEPT_S6_, symObjAddr: 0xACD0, symBinAddr: 0x10000C764, symSize: 0x24 }
  - { offsetInCU: 0x1D232, offset: 0x1D232, size: 0x8, addend: 0x0, symName: __ZNSt3__116allocator_traitsINS_9allocatorINS_11__tree_nodeINS_12__value_typeIciEEPvEEEEE8allocateB7v160006ERS7_m, symObjAddr: 0xAD08, symBinAddr: 0x10000C79C, symSize: 0x2C }
  - { offsetInCU: 0x1D23A, offset: 0x1D23A, size: 0x8, addend: 0x0, symName: __ZNSt3__122__tree_node_destructorINS_9allocatorINS_11__tree_nodeINS_12__value_typeIciEEPvEEEEEC1B7v160006ERS7_b, symObjAddr: 0xAD34, symBinAddr: 0x10000C7C8, symSize: 0x48 }
  - { offsetInCU: 0x1D269, offset: 0x1D269, size: 0x8, addend: 0x0, symName: __ZNSt3__122__tree_node_destructorINS_9allocatorINS_11__tree_nodeINS_12__value_typeIciEEPvEEEEEC1B7v160006ERS7_b, symObjAddr: 0xAD34, symBinAddr: 0x10000C7C8, symSize: 0x48 }
  - { offsetInCU: 0x1D271, offset: 0x1D271, size: 0x8, addend: 0x0, symName: __ZNSt3__110unique_ptrINS_11__tree_nodeINS_12__value_typeIciEEPvEENS_22__tree_node_destructorINS_9allocatorIS5_EEEEEC1B7v160006ILb1EvEEPS5_NS_16__dependent_typeINS_27__unique_ptr_deleter_sfinaeIS9_EEXT_EE20__good_rval_ref_typeE, symObjAddr: 0xAD7C, symBinAddr: 0x10000C810, symSize: 0x3C }
  - { offsetInCU: 0x1D2BC, offset: 0x1D2BC, size: 0x8, addend: 0x0, symName: __ZNSt3__110unique_ptrINS_11__tree_nodeINS_12__value_typeIciEEPvEENS_22__tree_node_destructorINS_9allocatorIS5_EEEEEC1B7v160006ILb1EvEEPS5_NS_16__dependent_typeINS_27__unique_ptr_deleter_sfinaeIS9_EEXT_EE20__good_rval_ref_typeE, symObjAddr: 0xAD7C, symBinAddr: 0x10000C810, symSize: 0x3C }
  - { offsetInCU: 0x1D2C4, offset: 0x1D2C4, size: 0x8, addend: 0x0, symName: __ZNSt3__116allocator_traitsINS_9allocatorINS_11__tree_nodeINS_12__value_typeIciEEPvEEEEE9constructB7v160006INS_4pairIKciEEJRKNS_21piecewise_construct_tENS_5tupleIJRSB_EEENSG_IJEEEEvvEEvRS7_PT_DpOT0_, symObjAddr: 0xADB8, symBinAddr: 0x10000C84C, symSize: 0x40 }
  - { offsetInCU: 0x1D312, offset: 0x1D312, size: 0x8, addend: 0x0, symName: __ZNSt3__116allocator_traitsINS_9allocatorINS_11__tree_nodeINS_12__value_typeIciEEPvEEEEE9constructB7v160006INS_4pairIKciEEJRKNS_21piecewise_construct_tENS_5tupleIJRSB_EEENSG_IJEEEEvvEEvRS7_PT_DpOT0_, symObjAddr: 0xADB8, symBinAddr: 0x10000C84C, symSize: 0x40 }
  - { offsetInCU: 0x1D31A, offset: 0x1D31A, size: 0x8, addend: 0x0, symName: __ZNKSt3__110unique_ptrINS_11__tree_nodeINS_12__value_typeIciEEPvEENS_22__tree_node_destructorINS_9allocatorIS5_EEEEEptB7v160006Ev, symObjAddr: 0xADF8, symBinAddr: 0x10000C88C, symSize: 0x28 }
  - { offsetInCU: 0x1D393, offset: 0x1D393, size: 0x8, addend: 0x0, symName: __ZNKSt3__110unique_ptrINS_11__tree_nodeINS_12__value_typeIciEEPvEENS_22__tree_node_destructorINS_9allocatorIS5_EEEEEptB7v160006Ev, symObjAddr: 0xADF8, symBinAddr: 0x10000C88C, symSize: 0x28 }
  - { offsetInCU: 0x1D39B, offset: 0x1D39B, size: 0x8, addend: 0x0, symName: __ZNSt3__110unique_ptrINS_11__tree_nodeINS_12__value_typeIciEEPvEENS_22__tree_node_destructorINS_9allocatorIS5_EEEEE11get_deleterB7v160006Ev, symObjAddr: 0xAE20, symBinAddr: 0x10000C8B4, symSize: 0x24 }
  - { offsetInCU: 0x1D3BE, offset: 0x1D3BE, size: 0x8, addend: 0x0, symName: __ZNSt3__110unique_ptrINS_11__tree_nodeINS_12__value_typeIciEEPvEENS_22__tree_node_destructorINS_9allocatorIS5_EEEEE11get_deleterB7v160006Ev, symObjAddr: 0xAE20, symBinAddr: 0x10000C8B4, symSize: 0x24 }
  - { offsetInCU: 0x1D3C6, offset: 0x1D3C6, size: 0x8, addend: 0x0, symName: __ZNSt3__19allocatorINS_11__tree_nodeINS_12__value_typeIciEEPvEEE8allocateB7v160006Em, symObjAddr: 0xAE44, symBinAddr: 0x10000C8D8, symSize: 0x5C }
  - { offsetInCU: 0x1D3E9, offset: 0x1D3E9, size: 0x8, addend: 0x0, symName: __ZNSt3__19allocatorINS_11__tree_nodeINS_12__value_typeIciEEPvEEE8allocateB7v160006Em, symObjAddr: 0xAE44, symBinAddr: 0x10000C8D8, symSize: 0x5C }
  - { offsetInCU: 0x1D3F1, offset: 0x1D3F1, size: 0x8, addend: 0x0, symName: __ZNSt3__116allocator_traitsINS_9allocatorINS_11__tree_nodeINS_12__value_typeIciEEPvEEEEE8max_sizeB7v160006IS7_vvEEmRKS7_, symObjAddr: 0xAEA0, symBinAddr: 0x10000C934, symSize: 0x28 }
  - { offsetInCU: 0x1D42D, offset: 0x1D42D, size: 0x8, addend: 0x0, symName: __ZNSt3__116allocator_traitsINS_9allocatorINS_11__tree_nodeINS_12__value_typeIciEEPvEEEEE8max_sizeB7v160006IS7_vvEEmRKS7_, symObjAddr: 0xAEA0, symBinAddr: 0x10000C934, symSize: 0x28 }
  - { offsetInCU: 0x1D435, offset: 0x1D435, size: 0x8, addend: 0x0, symName: __ZNSt3__122__tree_node_destructorINS_9allocatorINS_11__tree_nodeINS_12__value_typeIciEEPvEEEEEC2B7v160006ERS7_b, symObjAddr: 0xAEC8, symBinAddr: 0x10000C95C, symSize: 0x38 }
  - { offsetInCU: 0x1D45D, offset: 0x1D45D, size: 0x8, addend: 0x0, symName: __ZNSt3__122__tree_node_destructorINS_9allocatorINS_11__tree_nodeINS_12__value_typeIciEEPvEEEEEC2B7v160006ERS7_b, symObjAddr: 0xAEC8, symBinAddr: 0x10000C95C, symSize: 0x38 }
  - { offsetInCU: 0x1D465, offset: 0x1D465, size: 0x8, addend: 0x0, symName: __ZNSt3__110unique_ptrINS_11__tree_nodeINS_12__value_typeIciEEPvEENS_22__tree_node_destructorINS_9allocatorIS5_EEEEEC2B7v160006ILb1EvEEPS5_NS_16__dependent_typeINS_27__unique_ptr_deleter_sfinaeIS9_EEXT_EE20__good_rval_ref_typeE, symObjAddr: 0xAF00, symBinAddr: 0x10000C994, symSize: 0x48 }
  - { offsetInCU: 0x1D4AB, offset: 0x1D4AB, size: 0x8, addend: 0x0, symName: __ZNSt3__110unique_ptrINS_11__tree_nodeINS_12__value_typeIciEEPvEENS_22__tree_node_destructorINS_9allocatorIS5_EEEEEC2B7v160006ILb1EvEEPS5_NS_16__dependent_typeINS_27__unique_ptr_deleter_sfinaeIS9_EEXT_EE20__good_rval_ref_typeE, symObjAddr: 0xAF00, symBinAddr: 0x10000C994, symSize: 0x48 }
  - { offsetInCU: 0x1D4B3, offset: 0x1D4B3, size: 0x8, addend: 0x0, symName: __ZNSt3__117__compressed_pairIPNS_11__tree_nodeINS_12__value_typeIciEEPvEENS_22__tree_node_destructorINS_9allocatorIS5_EEEEEC1B7v160006IRS6_SA_EEOT_OT0_, symObjAddr: 0xAF48, symBinAddr: 0x10000C9DC, symSize: 0x3C }
  - { offsetInCU: 0x1D501, offset: 0x1D501, size: 0x8, addend: 0x0, symName: __ZNSt3__117__compressed_pairIPNS_11__tree_nodeINS_12__value_typeIciEEPvEENS_22__tree_node_destructorINS_9allocatorIS5_EEEEEC1B7v160006IRS6_SA_EEOT_OT0_, symObjAddr: 0xAF48, symBinAddr: 0x10000C9DC, symSize: 0x3C }
  - { offsetInCU: 0x1D509, offset: 0x1D509, size: 0x8, addend: 0x0, symName: __ZNSt3__117__compressed_pairIPNS_11__tree_nodeINS_12__value_typeIciEEPvEENS_22__tree_node_destructorINS_9allocatorIS5_EEEEEC2B7v160006IRS6_SA_EEOT_OT0_, symObjAddr: 0xAF84, symBinAddr: 0x10000CA18, symSize: 0x48 }
  - { offsetInCU: 0x1D55E, offset: 0x1D55E, size: 0x8, addend: 0x0, symName: __ZNSt3__117__compressed_pairIPNS_11__tree_nodeINS_12__value_typeIciEEPvEENS_22__tree_node_destructorINS_9allocatorIS5_EEEEEC2B7v160006IRS6_SA_EEOT_OT0_, symObjAddr: 0xAF84, symBinAddr: 0x10000CA18, symSize: 0x48 }
  - { offsetInCU: 0x1D566, offset: 0x1D566, size: 0x8, addend: 0x0, symName: __ZNSt3__122__compressed_pair_elemIPNS_11__tree_nodeINS_12__value_typeIciEEPvEELi0ELb0EEC2B7v160006IRS6_vEEOT_, symObjAddr: 0xAFCC, symBinAddr: 0x10000CA60, symSize: 0x24 }
  - { offsetInCU: 0x1D5BB, offset: 0x1D5BB, size: 0x8, addend: 0x0, symName: __ZNSt3__122__compressed_pair_elemIPNS_11__tree_nodeINS_12__value_typeIciEEPvEELi0ELb0EEC2B7v160006IRS6_vEEOT_, symObjAddr: 0xAFCC, symBinAddr: 0x10000CA60, symSize: 0x24 }
  - { offsetInCU: 0x1D5C3, offset: 0x1D5C3, size: 0x8, addend: 0x0, symName: __ZNSt3__122__compressed_pair_elemINS_22__tree_node_destructorINS_9allocatorINS_11__tree_nodeINS_12__value_typeIciEEPvEEEEEELi1ELb0EEC2B7v160006IS9_vEEOT_, symObjAddr: 0xAFF0, symBinAddr: 0x10000CA84, symSize: 0x24 }
  - { offsetInCU: 0x1D603, offset: 0x1D603, size: 0x8, addend: 0x0, symName: __ZNSt3__122__compressed_pair_elemINS_22__tree_node_destructorINS_9allocatorINS_11__tree_nodeINS_12__value_typeIciEEPvEEEEEELi1ELb0EEC2B7v160006IS9_vEEOT_, symObjAddr: 0xAFF0, symBinAddr: 0x10000CA84, symSize: 0x24 }
  - { offsetInCU: 0x1D60B, offset: 0x1D60B, size: 0x8, addend: 0x0, symName: __ZNSt3__112construct_atB7v160006INS_4pairIKciEEJRKNS_21piecewise_construct_tENS_5tupleIJRS2_EEENS7_IJEEEEPS3_EEPT_SD_DpOT0_, symObjAddr: 0xB014, symBinAddr: 0x10000CAA8, symSize: 0x50 }
  - { offsetInCU: 0x1D64B, offset: 0x1D64B, size: 0x8, addend: 0x0, symName: __ZNSt3__14pairIKciEC1B7v160006IJRS1_EJEEENS_21piecewise_construct_tENS_5tupleIJDpT_EEENS6_IJDpT0_EEE, symObjAddr: 0xB064, symBinAddr: 0x10000CAF8, symSize: 0x44 }
  - { offsetInCU: 0x1D653, offset: 0x1D653, size: 0x8, addend: 0x0, symName: __ZNSt3__14pairIKciEC1B7v160006IJRS1_EJEJLm0EEJEEENS_21piecewise_construct_tERNS_5tupleIJDpT_EEERNS6_IJDpT0_EEENS_15__tuple_indicesIJXspT1_EEEENSF_IJXspT2_EEEE, symObjAddr: 0xB0A8, symBinAddr: 0x10000CB3C, symSize: 0x3C }
  - { offsetInCU: 0x1D6B7, offset: 0x1D6B7, size: 0x8, addend: 0x0, symName: __ZNSt3__14pairIKciEC1B7v160006IJRS1_EJEJLm0EEJEEENS_21piecewise_construct_tERNS_5tupleIJDpT_EEERNS6_IJDpT0_EEENS_15__tuple_indicesIJXspT1_EEEENSF_IJXspT2_EEEE, symObjAddr: 0xB0A8, symBinAddr: 0x10000CB3C, symSize: 0x3C }
  - { offsetInCU: 0x1D6BF, offset: 0x1D6BF, size: 0x8, addend: 0x0, symName: __ZNSt3__14pairIKciEC2B7v160006IJRS1_EJEJLm0EEJEEENS_21piecewise_construct_tERNS_5tupleIJDpT_EEERNS6_IJDpT0_EEENS_15__tuple_indicesIJXspT1_EEEENSF_IJXspT2_EEEE, symObjAddr: 0xB0E4, symBinAddr: 0x10000CB78, symSize: 0x48 }
  - { offsetInCU: 0x1D74C, offset: 0x1D74C, size: 0x8, addend: 0x0, symName: __ZNSt3__14pairIKciEC2B7v160006IJRS1_EJEJLm0EEJEEENS_21piecewise_construct_tERNS_5tupleIJDpT_EEERNS6_IJDpT0_EEENS_15__tuple_indicesIJXspT1_EEEENSF_IJXspT2_EEEE, symObjAddr: 0xB0E4, symBinAddr: 0x10000CB78, symSize: 0x48 }
  - { offsetInCU: 0x1D754, offset: 0x1D754, size: 0x8, addend: 0x0, symName: __ZNSt3__13getB7v160006ILm0EJRKcEEERNS_13tuple_elementIXT_ENS_5tupleIJDpT0_EEEE4typeERS7_, symObjAddr: 0xB12C, symBinAddr: 0x10000CBC0, symSize: 0x24 }
  - { offsetInCU: 0x1D7E1, offset: 0x1D7E1, size: 0x8, addend: 0x0, symName: __ZNSt3__112__tuple_leafILm0ERKcLb0EE3getB7v160006Ev, symObjAddr: 0xB150, symBinAddr: 0x10000CBE4, symSize: 0x18 }
  - { offsetInCU: 0x1D7E9, offset: 0x1D7E9, size: 0x8, addend: 0x0, symName: __ZNKSt3__117__compressed_pairIPNS_11__tree_nodeINS_12__value_typeIciEEPvEENS_22__tree_node_destructorINS_9allocatorIS5_EEEEE5firstB7v160006Ev, symObjAddr: 0xB168, symBinAddr: 0x10000CBFC, symSize: 0x24 }
  - { offsetInCU: 0x1D80D, offset: 0x1D80D, size: 0x8, addend: 0x0, symName: __ZNKSt3__117__compressed_pairIPNS_11__tree_nodeINS_12__value_typeIciEEPvEENS_22__tree_node_destructorINS_9allocatorIS5_EEEEE5firstB7v160006Ev, symObjAddr: 0xB168, symBinAddr: 0x10000CBFC, symSize: 0x24 }
  - { offsetInCU: 0x1D815, offset: 0x1D815, size: 0x8, addend: 0x0, symName: __ZNKSt3__122__compressed_pair_elemIPNS_11__tree_nodeINS_12__value_typeIciEEPvEELi0ELb0EE5__getB7v160006Ev, symObjAddr: 0xB18C, symBinAddr: 0x10000CC20, symSize: 0x14 }
  - { offsetInCU: 0x1D838, offset: 0x1D838, size: 0x8, addend: 0x0, symName: __ZNKSt3__122__compressed_pair_elemIPNS_11__tree_nodeINS_12__value_typeIciEEPvEELi0ELb0EE5__getB7v160006Ev, symObjAddr: 0xB18C, symBinAddr: 0x10000CC20, symSize: 0x14 }
  - { offsetInCU: 0x1D840, offset: 0x1D840, size: 0x8, addend: 0x0, symName: __ZNSt3__117__compressed_pairIPNS_11__tree_nodeINS_12__value_typeIciEEPvEENS_22__tree_node_destructorINS_9allocatorIS5_EEEEE6secondB7v160006Ev, symObjAddr: 0xB1A0, symBinAddr: 0x10000CC34, symSize: 0x28 }
  - { offsetInCU: 0x1D864, offset: 0x1D864, size: 0x8, addend: 0x0, symName: __ZNSt3__117__compressed_pairIPNS_11__tree_nodeINS_12__value_typeIciEEPvEENS_22__tree_node_destructorINS_9allocatorIS5_EEEEE6secondB7v160006Ev, symObjAddr: 0xB1A0, symBinAddr: 0x10000CC34, symSize: 0x28 }
  - { offsetInCU: 0x1D86C, offset: 0x1D86C, size: 0x8, addend: 0x0, symName: __ZNSt3__122__compressed_pair_elemINS_22__tree_node_destructorINS_9allocatorINS_11__tree_nodeINS_12__value_typeIciEEPvEEEEEELi1ELb0EE5__getB7v160006Ev, symObjAddr: 0xB1C8, symBinAddr: 0x10000CC5C, symSize: 0x14 }
  - { offsetInCU: 0x1D88F, offset: 0x1D88F, size: 0x8, addend: 0x0, symName: __ZNSt3__122__compressed_pair_elemINS_22__tree_node_destructorINS_9allocatorINS_11__tree_nodeINS_12__value_typeIciEEPvEEEEEELi1ELb0EE5__getB7v160006Ev, symObjAddr: 0xB1C8, symBinAddr: 0x10000CC5C, symSize: 0x14 }
  - { offsetInCU: 0x1D897, offset: 0x1D897, size: 0x8, addend: 0x0, symName: __ZNSt3__127__tree_balance_after_insertB7v160006IPNS_16__tree_node_baseIPvEEEEvT_S5_, symObjAddr: 0xB1DC, symBinAddr: 0x10000CC70, symSize: 0x32C }
  - { offsetInCU: 0x1D8BB, offset: 0x1D8BB, size: 0x8, addend: 0x0, symName: __ZNSt3__16__treeINS_12__value_typeIciEENS_19__map_value_compareIcS2_NS_4lessIcEELb1EEENS_9allocatorIS2_EEE4sizeB7v160006Ev, symObjAddr: 0xB508, symBinAddr: 0x10000CF9C, symSize: 0x28 }
  - { offsetInCU: 0x1D8C3, offset: 0x1D8C3, size: 0x8, addend: 0x0, symName: __ZNKSt3__116__tree_node_baseIPvE15__parent_unsafeB7v160006Ev, symObjAddr: 0xB530, symBinAddr: 0x10000CFC4, symSize: 0x18 }
  - { offsetInCU: 0x1D8E6, offset: 0x1D8E6, size: 0x8, addend: 0x0, symName: __ZNKSt3__116__tree_node_baseIPvE15__parent_unsafeB7v160006Ev, symObjAddr: 0xB530, symBinAddr: 0x10000CFC4, symSize: 0x18 }
  - { offsetInCU: 0x1D8EE, offset: 0x1D8EE, size: 0x8, addend: 0x0, symName: __ZNSt3__120__tree_is_left_childB7v160006IPNS_16__tree_node_baseIPvEEEEbT_, symObjAddr: 0xB548, symBinAddr: 0x10000CFDC, symSize: 0x2C }
  - { offsetInCU: 0x1D912, offset: 0x1D912, size: 0x8, addend: 0x0, symName: __ZNSt3__116__tree_node_baseIPvE12__set_parentB7v160006EPS2_, symObjAddr: 0xB718, symBinAddr: 0x10000D1AC, symSize: 0x20 }
  - { offsetInCU: 0x1D91A, offset: 0x1D91A, size: 0x8, addend: 0x0, symName: __ZNSt3__117__compressed_pairImNS_19__map_value_compareIcNS_12__value_typeIciEENS_4lessIcEELb1EEEE5firstB7v160006Ev, symObjAddr: 0xB738, symBinAddr: 0x10000D1CC, symSize: 0x24 }
  - { offsetInCU: 0x1D94D, offset: 0x1D94D, size: 0x8, addend: 0x0, symName: __ZNSt3__117__compressed_pairImNS_19__map_value_compareIcNS_12__value_typeIciEENS_4lessIcEELb1EEEE5firstB7v160006Ev, symObjAddr: 0xB738, symBinAddr: 0x10000D1CC, symSize: 0x24 }
  - { offsetInCU: 0x1D955, offset: 0x1D955, size: 0x8, addend: 0x0, symName: __ZNSt3__117__compressed_pairIPNS_11__tree_nodeINS_12__value_typeIciEEPvEENS_22__tree_node_destructorINS_9allocatorIS5_EEEEE5firstB7v160006Ev, symObjAddr: 0xB75C, symBinAddr: 0x10000D1F0, symSize: 0x24 }
  - { offsetInCU: 0x1D978, offset: 0x1D978, size: 0x8, addend: 0x0, symName: __ZNSt3__117__compressed_pairIPNS_11__tree_nodeINS_12__value_typeIciEEPvEENS_22__tree_node_destructorINS_9allocatorIS5_EEEEE5firstB7v160006Ev, symObjAddr: 0xB75C, symBinAddr: 0x10000D1F0, symSize: 0x24 }
  - { offsetInCU: 0x1D980, offset: 0x1D980, size: 0x8, addend: 0x0, symName: __ZNSt3__122__compressed_pair_elemIPNS_11__tree_nodeINS_12__value_typeIciEEPvEELi0ELb0EE5__getB7v160006Ev, symObjAddr: 0xB780, symBinAddr: 0x10000D214, symSize: 0x14 }
  - { offsetInCU: 0x1D9A3, offset: 0x1D9A3, size: 0x8, addend: 0x0, symName: __ZNSt3__122__compressed_pair_elemIPNS_11__tree_nodeINS_12__value_typeIciEEPvEELi0ELb0EE5__getB7v160006Ev, symObjAddr: 0xB780, symBinAddr: 0x10000D214, symSize: 0x14 }
  - { offsetInCU: 0x1D9AB, offset: 0x1D9AB, size: 0x8, addend: 0x0, symName: __ZNSt3__110unique_ptrINS_11__tree_nodeINS_12__value_typeIciEEPvEENS_22__tree_node_destructorINS_9allocatorIS5_EEEEED2B7v160006Ev, symObjAddr: 0xB794, symBinAddr: 0x10000D228, symSize: 0x30 }
  - { offsetInCU: 0x1D9CF, offset: 0x1D9CF, size: 0x8, addend: 0x0, symName: __ZNSt3__110unique_ptrINS_11__tree_nodeINS_12__value_typeIciEEPvEENS_22__tree_node_destructorINS_9allocatorIS5_EEEEED2B7v160006Ev, symObjAddr: 0xB794, symBinAddr: 0x10000D228, symSize: 0x30 }
  - { offsetInCU: 0x1D9D7, offset: 0x1D9D7, size: 0x8, addend: 0x0, symName: __ZNSt3__110unique_ptrINS_11__tree_nodeINS_12__value_typeIciEEPvEENS_22__tree_node_destructorINS_9allocatorIS5_EEEEE5resetB7v160006EPS5_, symObjAddr: 0xB7C4, symBinAddr: 0x10000D258, symSize: 0x78 }
  - { offsetInCU: 0x1D9FE, offset: 0x1D9FE, size: 0x8, addend: 0x0, symName: __ZNSt3__110unique_ptrINS_11__tree_nodeINS_12__value_typeIciEEPvEENS_22__tree_node_destructorINS_9allocatorIS5_EEEEE5resetB7v160006EPS5_, symObjAddr: 0xB7C4, symBinAddr: 0x10000D258, symSize: 0x78 }
  - { offsetInCU: 0x1DA06, offset: 0x1DA06, size: 0x8, addend: 0x0, symName: __ZNSt3__122__tree_node_destructorINS_9allocatorINS_11__tree_nodeINS_12__value_typeIciEEPvEEEEEclB7v160006EPS6_, symObjAddr: 0xB83C, symBinAddr: 0x10000D2D0, symSize: 0x98 }
  - { offsetInCU: 0x1DA47, offset: 0x1DA47, size: 0x8, addend: 0x0, symName: __ZNSt3__122__tree_node_destructorINS_9allocatorINS_11__tree_nodeINS_12__value_typeIciEEPvEEEEEclB7v160006EPS6_, symObjAddr: 0xB83C, symBinAddr: 0x10000D2D0, symSize: 0x98 }
  - { offsetInCU: 0x1DA4F, offset: 0x1DA4F, size: 0x8, addend: 0x0, symName: __ZNSt3__115__tree_iteratorINS_12__value_typeIciEEPNS_11__tree_nodeIS2_PvEElEC2B7v160006ES6_, symObjAddr: 0xB8D4, symBinAddr: 0x10000D368, symSize: 0x20 }
  - { offsetInCU: 0x1DA81, offset: 0x1DA81, size: 0x8, addend: 0x0, symName: __ZNSt3__115__tree_iteratorINS_12__value_typeIciEEPNS_11__tree_nodeIS2_PvEElEC2B7v160006ES6_, symObjAddr: 0xB8D4, symBinAddr: 0x10000D368, symSize: 0x20 }
  - { offsetInCU: 0x1DA89, offset: 0x1DA89, size: 0x8, addend: 0x0, symName: __ZNSt3__14pairINS_15__tree_iteratorINS_12__value_typeIciEEPNS_11__tree_nodeIS3_PvEElEEbEC2B7v160006IS8_RbLS5_0EEEOT_OT0_, symObjAddr: 0xB8F4, symBinAddr: 0x10000D388, symSize: 0x38 }
  - { offsetInCU: 0x1DAC0, offset: 0x1DAC0, size: 0x8, addend: 0x0, symName: __ZNSt3__14pairINS_15__tree_iteratorINS_12__value_typeIciEEPNS_11__tree_nodeIS3_PvEElEEbEC2B7v160006IS8_RbLS5_0EEEOT_OT0_, symObjAddr: 0xB8F4, symBinAddr: 0x10000D388, symSize: 0x38 }
  - { offsetInCU: 0x1DAC8, offset: 0x1DAC8, size: 0x8, addend: 0x0, symName: __ZNSt3__15tupleIJRKcEEC1B7v160006INS_4_AndELi0EEES2_, symObjAddr: 0xB92C, symBinAddr: 0x10000D3C0, symSize: 0x34 }
  - { offsetInCU: 0x1DB24, offset: 0x1DB24, size: 0x8, addend: 0x0, symName: __ZNSt3__15tupleIJRKcEEC1B7v160006INS_4_AndELi0EEES2_, symObjAddr: 0xB92C, symBinAddr: 0x10000D3C0, symSize: 0x34 }
  - { offsetInCU: 0x1DB2C, offset: 0x1DB2C, size: 0x8, addend: 0x0, symName: __ZNSt3__15tupleIJRKcEEC2B7v160006INS_4_AndELi0EEES2_, symObjAddr: 0xB960, symBinAddr: 0x10000D3F4, symSize: 0x34 }
  - { offsetInCU: 0x1DB71, offset: 0x1DB71, size: 0x8, addend: 0x0, symName: __ZNSt3__15tupleIJRKcEEC2B7v160006INS_4_AndELi0EEES2_, symObjAddr: 0xB960, symBinAddr: 0x10000D3F4, symSize: 0x34 }
  - { offsetInCU: 0x1DB79, offset: 0x1DB79, size: 0x8, addend: 0x0, symName: __ZNSt3__112__tuple_implINS_15__tuple_indicesIJLm0EEEEJRKcEEC1B7v160006IJLm0EEJS4_EJEJEJS4_EEENS1_IJXspT_EEEENS_13__tuple_typesIJDpT0_EEENS1_IJXspT1_EEEENS8_IJDpT2_EEEDpOT3_, symObjAddr: 0xB994, symBinAddr: 0x10000D428, symSize: 0x34 }
  - { offsetInCU: 0x1DBBE, offset: 0x1DBBE, size: 0x8, addend: 0x0, symName: __ZNSt3__112__tuple_implINS_15__tuple_indicesIJLm0EEEEJRKcEEC1B7v160006IJLm0EEJS4_EJEJEJS4_EEENS1_IJXspT_EEEENS_13__tuple_typesIJDpT0_EEENS1_IJXspT1_EEEENS8_IJDpT2_EEEDpOT3_, symObjAddr: 0xB994, symBinAddr: 0x10000D428, symSize: 0x34 }
  - { offsetInCU: 0x1DBC6, offset: 0x1DBC6, size: 0x8, addend: 0x0, symName: __ZNSt3__112__tuple_implINS_15__tuple_indicesIJLm0EEEEJRKcEEC2B7v160006IJLm0EEJS4_EJEJEJS4_EEENS1_IJXspT_EEEENS_13__tuple_typesIJDpT0_EEENS1_IJXspT1_EEEENS8_IJDpT2_EEEDpOT3_, symObjAddr: 0xB9C8, symBinAddr: 0x10000D45C, symSize: 0x34 }
  - { offsetInCU: 0x1DC58, offset: 0x1DC58, size: 0x8, addend: 0x0, symName: __ZNSt3__112__tuple_implINS_15__tuple_indicesIJLm0EEEEJRKcEEC2B7v160006IJLm0EEJS4_EJEJEJS4_EEENS1_IJXspT_EEEENS_13__tuple_typesIJDpT0_EEENS1_IJXspT1_EEEENS8_IJDpT2_EEEDpOT3_, symObjAddr: 0xB9C8, symBinAddr: 0x10000D45C, symSize: 0x34 }
  - { offsetInCU: 0x1DC60, offset: 0x1DC60, size: 0x8, addend: 0x0, symName: __ZNSt3__112__tuple_leafILm0ERKcLb0EEC2B7v160006IS2_vEEOT_, symObjAddr: 0xB9FC, symBinAddr: 0x10000D490, symSize: 0x20 }
  - { offsetInCU: 0x1DCF2, offset: 0x1DCF2, size: 0x8, addend: 0x0, symName: __ZNSt3__112__tuple_leafILm0ERKcLb0EEC2B7v160006IS2_vEEOT_, symObjAddr: 0xB9FC, symBinAddr: 0x10000D490, symSize: 0x20 }
  - { offsetInCU: 0x1DCFA, offset: 0x1DCFA, size: 0x8, addend: 0x0, symName: __ZNSt3__114pointer_traitsIPNS_12__value_typeIciEEE10pointer_toB7v160006ERS2_, symObjAddr: 0xBA1C, symBinAddr: 0x10000D4B0, symSize: 0x14 }
  - { offsetInCU: 0x1DD3B, offset: 0x1DD3B, size: 0x8, addend: 0x0, symName: __ZNSt3__114pointer_traitsIPNS_12__value_typeIciEEE10pointer_toB7v160006ERS2_, symObjAddr: 0xBA1C, symBinAddr: 0x10000D4B0, symSize: 0x14 }
  - { offsetInCU: 0x1DD43, offset: 0x1DD43, size: 0x8, addend: 0x0, symName: __ZNKSt3__115__tree_iteratorINS_12__value_typeIciEEPNS_11__tree_nodeIS2_PvEElE8__get_npB7v160006Ev, symObjAddr: 0xBA30, symBinAddr: 0x10000D4C4, symSize: 0x18 }
  - { offsetInCU: 0x1DD63, offset: 0x1DD63, size: 0x8, addend: 0x0, symName: __ZNKSt3__115__tree_iteratorINS_12__value_typeIciEEPNS_11__tree_nodeIS2_PvEElE8__get_npB7v160006Ev, symObjAddr: 0xBA30, symBinAddr: 0x10000D4C4, symSize: 0x18 }
  - { offsetInCU: 0x1DD6B, offset: 0x1DD6B, size: 0x8, addend: 0x0, symName: __ZNSt3__15dequeIcNS_9allocatorIcEEE8pop_backEv, symObjAddr: 0xBA48, symBinAddr: 0x10000D4DC, symSize: 0xB8 }
  - { offsetInCU: 0x1DD8F, offset: 0x1DD8F, size: 0x8, addend: 0x0, symName: __ZNSt3__15dequeIcNS_9allocatorIcEEE8pop_backEv, symObjAddr: 0xBA48, symBinAddr: 0x10000D4DC, symSize: 0xB8 }
  - { offsetInCU: 0x1DD97, offset: 0x1DD97, size: 0x8, addend: 0x0, symName: __ZNSt3__15dequeIcNS_9allocatorIcEEE25__maybe_remove_back_spareB7v160006Eb, symObjAddr: 0xBB00, symBinAddr: 0x10000D594, symSize: 0xCC }
  - { offsetInCU: 0x1DDDA, offset: 0x1DDDA, size: 0x8, addend: 0x0, symName: __ZNSt3__15dequeIcNS_9allocatorIcEEE25__maybe_remove_back_spareB7v160006Eb, symObjAddr: 0xBB00, symBinAddr: 0x10000D594, symSize: 0xCC }
  - { offsetInCU: 0x1DDE2, offset: 0x1DDE2, size: 0x8, addend: 0x0, symName: __ZNKSt3__15dequeIcNS_9allocatorIcEEE19__back_spare_blocksB7v160006Ev, symObjAddr: 0xBBCC, symBinAddr: 0x10000D660, symSize: 0x2C }
  - { offsetInCU: 0x1DE14, offset: 0x1DE14, size: 0x8, addend: 0x0, symName: __ZNKSt3__15dequeIcNS_9allocatorIcEEE19__back_spare_blocksB7v160006Ev, symObjAddr: 0xBBCC, symBinAddr: 0x10000D660, symSize: 0x2C }
  - { offsetInCU: 0x1DE1C, offset: 0x1DE1C, size: 0x8, addend: 0x0, symName: __ZNSt3__114__split_bufferIPcNS_9allocatorIS1_EEE4backB7v160006Ev, symObjAddr: 0xBBF8, symBinAddr: 0x10000D68C, symSize: 0x1C }
  - { offsetInCU: 0x1DE3F, offset: 0x1DE3F, size: 0x8, addend: 0x0, symName: __ZNSt3__114__split_bufferIPcNS_9allocatorIS1_EEE4backB7v160006Ev, symObjAddr: 0xBBF8, symBinAddr: 0x10000D68C, symSize: 0x1C }
  - { offsetInCU: 0x1DE47, offset: 0x1DE47, size: 0x8, addend: 0x0, symName: __ZNSt3__114__split_bufferIPcNS_9allocatorIS1_EEE8pop_backB7v160006Ev, symObjAddr: 0xBC14, symBinAddr: 0x10000D6A8, symSize: 0x2C }
  - { offsetInCU: 0x1DE6B, offset: 0x1DE6B, size: 0x8, addend: 0x0, symName: __ZNSt3__114__split_bufferIPcNS_9allocatorIS1_EEE8pop_backB7v160006Ev, symObjAddr: 0xBC14, symBinAddr: 0x10000D6A8, symSize: 0x2C }
  - { offsetInCU: 0x1DE73, offset: 0x1DE73, size: 0x8, addend: 0x0, symName: __ZNKSt3__16__treeINS_12__value_typeIciEENS_19__map_value_compareIcS2_NS_4lessIcEELb1EEENS_9allocatorIS2_EEE4sizeB7v160006Ev, symObjAddr: 0xBC40, symBinAddr: 0x10000D6D4, symSize: 0x28 }
  - { offsetInCU: 0x1DE96, offset: 0x1DE96, size: 0x8, addend: 0x0, symName: __ZNKSt3__16__treeINS_12__value_typeIciEENS_19__map_value_compareIcS2_NS_4lessIcEELb1EEENS_9allocatorIS2_EEE4sizeB7v160006Ev, symObjAddr: 0xBC40, symBinAddr: 0x10000D6D4, symSize: 0x28 }
  - { offsetInCU: 0x1DE9E, offset: 0x1DE9E, size: 0x8, addend: 0x0, symName: __ZNKSt3__117__compressed_pairImNS_19__map_value_compareIcNS_12__value_typeIciEENS_4lessIcEELb1EEEE5firstB7v160006Ev, symObjAddr: 0xBC68, symBinAddr: 0x10000D6FC, symSize: 0x24 }
  - { offsetInCU: 0x1DEC1, offset: 0x1DEC1, size: 0x8, addend: 0x0, symName: __ZNKSt3__117__compressed_pairImNS_19__map_value_compareIcNS_12__value_typeIciEENS_4lessIcEELb1EEEE5firstB7v160006Ev, symObjAddr: 0xBC68, symBinAddr: 0x10000D6FC, symSize: 0x24 }
  - { offsetInCU: 0x1DEC9, offset: 0x1DEC9, size: 0x8, addend: 0x0, symName: __ZNKSt3__19basic_iosIcNS_11char_traitsIcEEE5widenB7v160006Ec, symObjAddr: 0xBC8C, symBinAddr: 0x10000D720, symSize: 0x84 }
  - { offsetInCU: 0x1DEEC, offset: 0x1DEEC, size: 0x8, addend: 0x0, symName: __ZNKSt3__19basic_iosIcNS_11char_traitsIcEEE5widenB7v160006Ec, symObjAddr: 0xBC8C, symBinAddr: 0x10000D720, symSize: 0x84 }
  - { offsetInCU: 0x1DEF4, offset: 0x1DEF4, size: 0x8, addend: 0x0, symName: __ZNSt3__19use_facetB7v160006INS_5ctypeIcEEEERKT_RKNS_6localeE, symObjAddr: 0xBD10, symBinAddr: 0x10000D7A4, symSize: 0x2C }
  - { offsetInCU: 0x1DF66, offset: 0x1DF66, size: 0x8, addend: 0x0, symName: __ZNKSt3__15ctypeIcE5widenB7v160006Ec, symObjAddr: 0xBD3C, symBinAddr: 0x10000D7D0, symSize: 0x38 }
  - { offsetInCU: 0x1DF6E, offset: 0x1DF6E, size: 0x8, addend: 0x0, symName: __ZNSt3__124__put_character_sequenceB7v160006IcNS_11char_traitsIcEEEERNS_13basic_ostreamIT_T0_EES7_PKS4_m, symObjAddr: 0xBD74, symBinAddr: 0x10000D808, symSize: 0x1EC }
  - { offsetInCU: 0x1DFA0, offset: 0x1DFA0, size: 0x8, addend: 0x0, symName: __ZNSt3__111char_traitsIcE6lengthEPKc, symObjAddr: 0xBF60, symBinAddr: 0x10000D9F4, symSize: 0x34 }
  - { offsetInCU: 0x1DFA8, offset: 0x1DFA8, size: 0x8, addend: 0x0, symName: __ZNKSt3__113basic_ostreamIcNS_11char_traitsIcEEE6sentrycvbB7v160006Ev, symObjAddr: 0xBF94, symBinAddr: 0x10000DA28, symSize: 0x1C }
  - { offsetInCU: 0x1DFEA, offset: 0x1DFEA, size: 0x8, addend: 0x0, symName: __ZNKSt3__113basic_ostreamIcNS_11char_traitsIcEEE6sentrycvbB7v160006Ev, symObjAddr: 0xBF94, symBinAddr: 0x10000DA28, symSize: 0x1C }
  - { offsetInCU: 0x1DFF2, offset: 0x1DFF2, size: 0x8, addend: 0x0, symName: __ZNSt3__116__pad_and_outputB7v160006IcNS_11char_traitsIcEEEENS_19ostreambuf_iteratorIT_T0_EES6_PKS4_S8_S8_RNS_8ios_baseES4_, symObjAddr: 0xBFB0, symBinAddr: 0x10000DA44, symSize: 0x240 }
  - { offsetInCU: 0x1E016, offset: 0x1E016, size: 0x8, addend: 0x0, symName: __ZNSt3__119ostreambuf_iteratorIcNS_11char_traitsIcEEEC1B7v160006ERNS_13basic_ostreamIcS2_EE, symObjAddr: 0xC1F0, symBinAddr: 0x10000DC84, symSize: 0x34 }
  - { offsetInCU: 0x1E01E, offset: 0x1E01E, size: 0x8, addend: 0x0, symName: __ZNKSt3__18ios_base5flagsB7v160006Ev, symObjAddr: 0xC224, symBinAddr: 0x10000DCB8, symSize: 0x18 }
  - { offsetInCU: 0x1E053, offset: 0x1E053, size: 0x8, addend: 0x0, symName: __ZNKSt3__18ios_base5flagsB7v160006Ev, symObjAddr: 0xC224, symBinAddr: 0x10000DCB8, symSize: 0x18 }
  - { offsetInCU: 0x1E05B, offset: 0x1E05B, size: 0x8, addend: 0x0, symName: __ZNKSt3__19basic_iosIcNS_11char_traitsIcEEE4fillB7v160006Ev, symObjAddr: 0xC23C, symBinAddr: 0x10000DCD0, symSize: 0x64 }
  - { offsetInCU: 0x1E081, offset: 0x1E081, size: 0x8, addend: 0x0, symName: __ZNKSt3__19basic_iosIcNS_11char_traitsIcEEE4fillB7v160006Ev, symObjAddr: 0xC23C, symBinAddr: 0x10000DCD0, symSize: 0x64 }
  - { offsetInCU: 0x1E089, offset: 0x1E089, size: 0x8, addend: 0x0, symName: __ZNKSt3__119ostreambuf_iteratorIcNS_11char_traitsIcEEE6failedB7v160006Ev, symObjAddr: 0xC2A0, symBinAddr: 0x10000DD34, symSize: 0x24 }
  - { offsetInCU: 0x1E0AE, offset: 0x1E0AE, size: 0x8, addend: 0x0, symName: __ZNKSt3__119ostreambuf_iteratorIcNS_11char_traitsIcEEE6failedB7v160006Ev, symObjAddr: 0xC2A0, symBinAddr: 0x10000DD34, symSize: 0x24 }
  - { offsetInCU: 0x1E0B6, offset: 0x1E0B6, size: 0x8, addend: 0x0, symName: __ZNSt3__19basic_iosIcNS_11char_traitsIcEEE8setstateB7v160006Ej, symObjAddr: 0xC2C4, symBinAddr: 0x10000DD58, symSize: 0x2C }
  - { offsetInCU: 0x1E0DA, offset: 0x1E0DA, size: 0x8, addend: 0x0, symName: __ZNSt3__19basic_iosIcNS_11char_traitsIcEEE8setstateB7v160006Ej, symObjAddr: 0xC2C4, symBinAddr: 0x10000DD58, symSize: 0x2C }
  - { offsetInCU: 0x1E0E2, offset: 0x1E0E2, size: 0x8, addend: 0x0, symName: __ZNKSt3__18ios_base5widthB7v160006Ev, symObjAddr: 0xC2F0, symBinAddr: 0x10000DD84, symSize: 0x18 }
  - { offsetInCU: 0x1E114, offset: 0x1E114, size: 0x8, addend: 0x0, symName: __ZNKSt3__18ios_base5widthB7v160006Ev, symObjAddr: 0xC2F0, symBinAddr: 0x10000DD84, symSize: 0x18 }
  - { offsetInCU: 0x1E11C, offset: 0x1E11C, size: 0x8, addend: 0x0, symName: __ZNSt3__115basic_streambufIcNS_11char_traitsIcEEE5sputnB7v160006EPKcl, symObjAddr: 0xC308, symBinAddr: 0x10000DD9C, symSize: 0x3C }
  - { offsetInCU: 0x1E142, offset: 0x1E142, size: 0x8, addend: 0x0, symName: __ZNSt3__115basic_streambufIcNS_11char_traitsIcEEE5sputnB7v160006EPKcl, symObjAddr: 0xC308, symBinAddr: 0x10000DD9C, symSize: 0x3C }
  - { offsetInCU: 0x1E14A, offset: 0x1E14A, size: 0x8, addend: 0x0, symName: __ZNSt3__112basic_stringIcNS_11char_traitsIcEENS_9allocatorIcEEEC1B7v160006Emc, symObjAddr: 0xC344, symBinAddr: 0x10000DDD8, symSize: 0x3C }
  - { offsetInCU: 0x1E189, offset: 0x1E189, size: 0x8, addend: 0x0, symName: __ZNSt3__112basic_stringIcNS_11char_traitsIcEENS_9allocatorIcEEEC1B7v160006Emc, symObjAddr: 0xC344, symBinAddr: 0x10000DDD8, symSize: 0x3C }
  - { offsetInCU: 0x1E191, offset: 0x1E191, size: 0x8, addend: 0x0, symName: __ZNSt3__112basic_stringIcNS_11char_traitsIcEENS_9allocatorIcEEE4dataB7v160006Ev, symObjAddr: 0xC380, symBinAddr: 0x10000DE14, symSize: 0x28 }
  - { offsetInCU: 0x1E1D6, offset: 0x1E1D6, size: 0x8, addend: 0x0, symName: __ZNSt3__112basic_stringIcNS_11char_traitsIcEENS_9allocatorIcEEE4dataB7v160006Ev, symObjAddr: 0xC380, symBinAddr: 0x10000DE14, symSize: 0x28 }
  - { offsetInCU: 0x1E1DE, offset: 0x1E1DE, size: 0x8, addend: 0x0, symName: __ZNSt3__18ios_base5widthB7v160006El, symObjAddr: 0xC3A8, symBinAddr: 0x10000DE3C, symSize: 0x2C }
  - { offsetInCU: 0x1E201, offset: 0x1E201, size: 0x8, addend: 0x0, symName: __ZNSt3__18ios_base5widthB7v160006El, symObjAddr: 0xC3A8, symBinAddr: 0x10000DE3C, symSize: 0x2C }
  - { offsetInCU: 0x1E209, offset: 0x1E209, size: 0x8, addend: 0x0, symName: __ZNSt3__112basic_stringIcNS_11char_traitsIcEENS_9allocatorIcEEEC2B7v160006Emc, symObjAddr: 0xC3D4, symBinAddr: 0x10000DE68, symSize: 0x54 }
  - { offsetInCU: 0x1E24D, offset: 0x1E24D, size: 0x8, addend: 0x0, symName: __ZNSt3__112basic_stringIcNS_11char_traitsIcEENS_9allocatorIcEEEC2B7v160006Emc, symObjAddr: 0xC3D4, symBinAddr: 0x10000DE68, symSize: 0x54 }
  - { offsetInCU: 0x1E255, offset: 0x1E255, size: 0x8, addend: 0x0, symName: __ZNSt3__117__compressed_pairINS_12basic_stringIcNS_11char_traitsIcEENS_9allocatorIcEEE5__repES5_EC1B7v160006INS_18__default_init_tagESA_EEOT_OT0_, symObjAddr: 0xC428, symBinAddr: 0x10000DEBC, symSize: 0x3C }
  - { offsetInCU: 0x1E29A, offset: 0x1E29A, size: 0x8, addend: 0x0, symName: __ZNSt3__117__compressed_pairINS_12basic_stringIcNS_11char_traitsIcEENS_9allocatorIcEEE5__repES5_EC1B7v160006INS_18__default_init_tagESA_EEOT_OT0_, symObjAddr: 0xC428, symBinAddr: 0x10000DEBC, symSize: 0x3C }
  - { offsetInCU: 0x1E2A2, offset: 0x1E2A2, size: 0x8, addend: 0x0, symName: __ZNSt3__117__compressed_pairINS_12basic_stringIcNS_11char_traitsIcEENS_9allocatorIcEEE5__repES5_EC2B7v160006INS_18__default_init_tagESA_EEOT_OT0_, symObjAddr: 0xC464, symBinAddr: 0x10000DEF8, symSize: 0x3C }
  - { offsetInCU: 0x1E2F7, offset: 0x1E2F7, size: 0x8, addend: 0x0, symName: __ZNSt3__117__compressed_pairINS_12basic_stringIcNS_11char_traitsIcEENS_9allocatorIcEEE5__repES5_EC2B7v160006INS_18__default_init_tagESA_EEOT_OT0_, symObjAddr: 0xC464, symBinAddr: 0x10000DEF8, symSize: 0x3C }
  - { offsetInCU: 0x1E2FF, offset: 0x1E2FF, size: 0x8, addend: 0x0, symName: __ZNSt3__122__compressed_pair_elemINS_12basic_stringIcNS_11char_traitsIcEENS_9allocatorIcEEE5__repELi0ELb0EEC2B7v160006ENS_18__default_init_tagE, symObjAddr: 0xC4A0, symBinAddr: 0x10000DF34, symSize: 0x14 }
  - { offsetInCU: 0x1E354, offset: 0x1E354, size: 0x8, addend: 0x0, symName: __ZNSt3__122__compressed_pair_elemINS_12basic_stringIcNS_11char_traitsIcEENS_9allocatorIcEEE5__repELi0ELb0EEC2B7v160006ENS_18__default_init_tagE, symObjAddr: 0xC4A0, symBinAddr: 0x10000DF34, symSize: 0x14 }
  - { offsetInCU: 0x1E35C, offset: 0x1E35C, size: 0x8, addend: 0x0, symName: __ZNSt3__122__compressed_pair_elemINS_9allocatorIcEELi1ELb1EEC2B7v160006ENS_18__default_init_tagE, symObjAddr: 0xC4B4, symBinAddr: 0x10000DF48, symSize: 0x2C }
  - { offsetInCU: 0x1E38E, offset: 0x1E38E, size: 0x8, addend: 0x0, symName: __ZNSt3__122__compressed_pair_elemINS_9allocatorIcEELi1ELb1EEC2B7v160006ENS_18__default_init_tagE, symObjAddr: 0xC4B4, symBinAddr: 0x10000DF48, symSize: 0x2C }
  - { offsetInCU: 0x1E396, offset: 0x1E396, size: 0x8, addend: 0x0, symName: __ZNSt3__19allocatorIcEC2B7v160006Ev, symObjAddr: 0xC4E0, symBinAddr: 0x10000DF74, symSize: 0x2C }
  - { offsetInCU: 0x1E3C7, offset: 0x1E3C7, size: 0x8, addend: 0x0, symName: __ZNSt3__19allocatorIcEC2B7v160006Ev, symObjAddr: 0xC4E0, symBinAddr: 0x10000DF74, symSize: 0x2C }
  - { offsetInCU: 0x1E3CF, offset: 0x1E3CF, size: 0x8, addend: 0x0, symName: __ZNSt3__112basic_stringIcNS_11char_traitsIcEENS_9allocatorIcEEE13__get_pointerB7v160006Ev, symObjAddr: 0xC50C, symBinAddr: 0x10000DFA0, symSize: 0x54 }
  - { offsetInCU: 0x1E3F6, offset: 0x1E3F6, size: 0x8, addend: 0x0, symName: __ZNSt3__112basic_stringIcNS_11char_traitsIcEENS_9allocatorIcEEE13__get_pointerB7v160006Ev, symObjAddr: 0xC50C, symBinAddr: 0x10000DFA0, symSize: 0x54 }
  - { offsetInCU: 0x1E3FE, offset: 0x1E3FE, size: 0x8, addend: 0x0, symName: __ZNSt3__112basic_stringIcNS_11char_traitsIcEENS_9allocatorIcEEE18__get_long_pointerB7v160006Ev, symObjAddr: 0xC560, symBinAddr: 0x10000DFF4, symSize: 0x28 }
  - { offsetInCU: 0x1E421, offset: 0x1E421, size: 0x8, addend: 0x0, symName: __ZNSt3__112basic_stringIcNS_11char_traitsIcEENS_9allocatorIcEEE18__get_long_pointerB7v160006Ev, symObjAddr: 0xC560, symBinAddr: 0x10000DFF4, symSize: 0x28 }
  - { offsetInCU: 0x1E429, offset: 0x1E429, size: 0x8, addend: 0x0, symName: __ZNSt3__112basic_stringIcNS_11char_traitsIcEENS_9allocatorIcEEE19__get_short_pointerB7v160006Ev, symObjAddr: 0xC588, symBinAddr: 0x10000E01C, symSize: 0x28 }
  - { offsetInCU: 0x1E44C, offset: 0x1E44C, size: 0x8, addend: 0x0, symName: __ZNSt3__112basic_stringIcNS_11char_traitsIcEENS_9allocatorIcEEE19__get_short_pointerB7v160006Ev, symObjAddr: 0xC588, symBinAddr: 0x10000E01C, symSize: 0x28 }
  - { offsetInCU: 0x1E454, offset: 0x1E454, size: 0x8, addend: 0x0, symName: __ZNSt3__114pointer_traitsIPcE10pointer_toB7v160006ERc, symObjAddr: 0xC5B0, symBinAddr: 0x10000E044, symSize: 0x14 }
  - { offsetInCU: 0x1E477, offset: 0x1E477, size: 0x8, addend: 0x0, symName: __ZNSt3__114pointer_traitsIPcE10pointer_toB7v160006ERc, symObjAddr: 0xC5B0, symBinAddr: 0x10000E044, symSize: 0x14 }
  - { offsetInCU: 0x1E47F, offset: 0x1E47F, size: 0x8, addend: 0x0, symName: __ZNSt3__119ostreambuf_iteratorIcNS_11char_traitsIcEEEC2B7v160006ERNS_13basic_ostreamIcS2_EE, symObjAddr: 0xC5C4, symBinAddr: 0x10000E058, symSize: 0x54 }
  - { offsetInCU: 0x1E49F, offset: 0x1E49F, size: 0x8, addend: 0x0, symName: __ZNSt3__119ostreambuf_iteratorIcNS_11char_traitsIcEEEC2B7v160006ERNS_13basic_ostreamIcS2_EE, symObjAddr: 0xC5C4, symBinAddr: 0x10000E058, symSize: 0x54 }
  - { offsetInCU: 0x1E4A7, offset: 0x1E4A7, size: 0x8, addend: 0x0, symName: __ZNKSt3__19basic_iosIcNS_11char_traitsIcEEE5rdbufB7v160006Ev, symObjAddr: 0xC618, symBinAddr: 0x10000E0AC, symSize: 0x24 }
  - { offsetInCU: 0x1E4DC, offset: 0x1E4DC, size: 0x8, addend: 0x0, symName: __ZNKSt3__19basic_iosIcNS_11char_traitsIcEEE5rdbufB7v160006Ev, symObjAddr: 0xC618, symBinAddr: 0x10000E0AC, symSize: 0x24 }
  - { offsetInCU: 0x1E4E4, offset: 0x1E4E4, size: 0x8, addend: 0x0, symName: __ZNKSt3__18ios_base5rdbufB7v160006Ev, symObjAddr: 0xC63C, symBinAddr: 0x10000E0D0, symSize: 0x18 }
  - { offsetInCU: 0x1E509, offset: 0x1E509, size: 0x8, addend: 0x0, symName: __ZNKSt3__18ios_base5rdbufB7v160006Ev, symObjAddr: 0xC63C, symBinAddr: 0x10000E0D0, symSize: 0x18 }
  - { offsetInCU: 0x1E511, offset: 0x1E511, size: 0x8, addend: 0x0, symName: __ZNSt3__111char_traitsIcE11eq_int_typeEii, symObjAddr: 0xC654, symBinAddr: 0x10000E0E8, symSize: 0x28 }
  - { offsetInCU: 0x1E535, offset: 0x1E535, size: 0x8, addend: 0x0, symName: __ZNSt3__111char_traitsIcE11eq_int_typeEii, symObjAddr: 0xC654, symBinAddr: 0x10000E0E8, symSize: 0x28 }
  - { offsetInCU: 0x1E53D, offset: 0x1E53D, size: 0x8, addend: 0x0, symName: __ZNSt3__111char_traitsIcE3eofEv, symObjAddr: 0xC67C, symBinAddr: 0x10000E110, symSize: 0x8 }
  - { offsetInCU: 0x1E56B, offset: 0x1E56B, size: 0x8, addend: 0x0, symName: __ZNSt3__111char_traitsIcE3eofEv, symObjAddr: 0xC67C, symBinAddr: 0x10000E110, symSize: 0x8 }
  - { offsetInCU: 0x1E573, offset: 0x1E573, size: 0x8, addend: 0x0, symName: __ZNSt3__18ios_base8setstateB7v160006Ej, symObjAddr: 0xC684, symBinAddr: 0x10000E118, symSize: 0x34 }
  - { offsetInCU: 0x1E584, offset: 0x1E584, size: 0x8, addend: 0x0, symName: __ZNSt3__18ios_base8setstateB7v160006Ej, symObjAddr: 0xC684, symBinAddr: 0x10000E118, symSize: 0x34 }
  - { offsetInCU: 0x1E58C, offset: 0x1E58C, size: 0x8, addend: 0x0, symName: __ZNSt3__118__constexpr_strlenB7v160006EPKc, symObjAddr: 0xC6B8, symBinAddr: 0x10000E14C, symSize: 0x24 }
  - { offsetInCU: 0x1E5C0, offset: 0x1E5C0, size: 0x8, addend: 0x0, symName: __ZNSt3__15dequeIcNS_9allocatorIcEEE9push_backERKc, symObjAddr: 0xC6DC, symBinAddr: 0x10000E170, symSize: 0xA0 }
  - { offsetInCU: 0x1E5C8, offset: 0x1E5C8, size: 0x8, addend: 0x0, symName: __ZNSt3__15dequeIcNS_9allocatorIcEEE19__add_back_capacityEv, symObjAddr: 0xC77C, symBinAddr: 0x10000E210, symSize: 0x314 }
  - { offsetInCU: 0x1E60B, offset: 0x1E60B, size: 0x8, addend: 0x0, symName: __ZNSt3__15dequeIcNS_9allocatorIcEEE19__add_back_capacityEv, symObjAddr: 0xC77C, symBinAddr: 0x10000E210, symSize: 0x314 }
  - { offsetInCU: 0x1E613, offset: 0x1E613, size: 0x8, addend: 0x0, symName: __ZNSt3__122__allocator_destructorINS_9allocatorIcEEEC1B7v160006ERS2_m, symObjAddr: 0xCA90, symBinAddr: 0x10000E524, symSize: 0x3C }
  - { offsetInCU: 0x1E6D7, offset: 0x1E6D7, size: 0x8, addend: 0x0, symName: __ZNSt3__122__allocator_destructorINS_9allocatorIcEEEC1B7v160006ERS2_m, symObjAddr: 0xCA90, symBinAddr: 0x10000E524, symSize: 0x3C }
  - { offsetInCU: 0x1E6DF, offset: 0x1E6DF, size: 0x8, addend: 0x0, symName: __ZNSt3__110unique_ptrIPcNS_22__allocator_destructorINS_9allocatorIcEEEEEC1B7v160006ILb1EvEES1_NS_16__dependent_typeINS_27__unique_ptr_deleter_sfinaeIS5_EEXT_EE20__good_rval_ref_typeE, symObjAddr: 0xCACC, symBinAddr: 0x10000E560, symSize: 0x3C }
  - { offsetInCU: 0x1E7B2, offset: 0x1E7B2, size: 0x8, addend: 0x0, symName: __ZNSt3__110unique_ptrIPcNS_22__allocator_destructorINS_9allocatorIcEEEEEC1B7v160006ILb1EvEES1_NS_16__dependent_typeINS_27__unique_ptr_deleter_sfinaeIS5_EEXT_EE20__good_rval_ref_typeE, symObjAddr: 0xCACC, symBinAddr: 0x10000E560, symSize: 0x3C }
  - { offsetInCU: 0x1E7BA, offset: 0x1E7BA, size: 0x8, addend: 0x0, symName: __ZNKSt3__110unique_ptrIPcNS_22__allocator_destructorINS_9allocatorIcEEEEE3getB7v160006Ev, symObjAddr: 0xCB08, symBinAddr: 0x10000E59C, symSize: 0x28 }
  - { offsetInCU: 0x1E808, offset: 0x1E808, size: 0x8, addend: 0x0, symName: __ZNKSt3__110unique_ptrIPcNS_22__allocator_destructorINS_9allocatorIcEEEEE3getB7v160006Ev, symObjAddr: 0xCB08, symBinAddr: 0x10000E59C, symSize: 0x28 }
  - { offsetInCU: 0x1E810, offset: 0x1E810, size: 0x8, addend: 0x0, symName: __ZNSt3__110unique_ptrIPcNS_22__allocator_destructorINS_9allocatorIcEEEEE7releaseB7v160006Ev, symObjAddr: 0xCB30, symBinAddr: 0x10000E5C4, symSize: 0x44 }
  - { offsetInCU: 0x1E833, offset: 0x1E833, size: 0x8, addend: 0x0, symName: __ZNSt3__110unique_ptrIPcNS_22__allocator_destructorINS_9allocatorIcEEEEE7releaseB7v160006Ev, symObjAddr: 0xCB30, symBinAddr: 0x10000E5C4, symSize: 0x44 }
  - { offsetInCU: 0x1E83B, offset: 0x1E83B, size: 0x8, addend: 0x0, symName: __ZNSt3__110unique_ptrIPcNS_22__allocator_destructorINS_9allocatorIcEEEEED1B7v160006Ev, symObjAddr: 0xCB74, symBinAddr: 0x10000E608, symSize: 0x2C }
  - { offsetInCU: 0x1E86D, offset: 0x1E86D, size: 0x8, addend: 0x0, symName: __ZNSt3__110unique_ptrIPcNS_22__allocator_destructorINS_9allocatorIcEEEEED1B7v160006Ev, symObjAddr: 0xCB74, symBinAddr: 0x10000E608, symSize: 0x2C }
  - { offsetInCU: 0x1E875, offset: 0x1E875, size: 0x8, addend: 0x0, symName: __ZNSt3__122__allocator_destructorINS_9allocatorIcEEEC2B7v160006ERS2_m, symObjAddr: 0xCBA0, symBinAddr: 0x10000E634, symSize: 0x2C }
  - { offsetInCU: 0x1E89C, offset: 0x1E89C, size: 0x8, addend: 0x0, symName: __ZNSt3__122__allocator_destructorINS_9allocatorIcEEEC2B7v160006ERS2_m, symObjAddr: 0xCBA0, symBinAddr: 0x10000E634, symSize: 0x2C }
  - { offsetInCU: 0x1E8A4, offset: 0x1E8A4, size: 0x8, addend: 0x0, symName: __ZNSt3__110unique_ptrIPcNS_22__allocator_destructorINS_9allocatorIcEEEEEC2B7v160006ILb1EvEES1_NS_16__dependent_typeINS_27__unique_ptr_deleter_sfinaeIS5_EEXT_EE20__good_rval_ref_typeE, symObjAddr: 0xCBCC, symBinAddr: 0x10000E660, symSize: 0x48 }
  - { offsetInCU: 0x1E8E8, offset: 0x1E8E8, size: 0x8, addend: 0x0, symName: __ZNSt3__110unique_ptrIPcNS_22__allocator_destructorINS_9allocatorIcEEEEEC2B7v160006ILb1EvEES1_NS_16__dependent_typeINS_27__unique_ptr_deleter_sfinaeIS5_EEXT_EE20__good_rval_ref_typeE, symObjAddr: 0xCBCC, symBinAddr: 0x10000E660, symSize: 0x48 }
  - { offsetInCU: 0x1E8F0, offset: 0x1E8F0, size: 0x8, addend: 0x0, symName: __ZNSt3__117__compressed_pairIPcNS_22__allocator_destructorINS_9allocatorIcEEEEEC1B7v160006IRS1_S5_EEOT_OT0_, symObjAddr: 0xCC14, symBinAddr: 0x10000E6A8, symSize: 0x3C }
  - { offsetInCU: 0x1E93E, offset: 0x1E93E, size: 0x8, addend: 0x0, symName: __ZNSt3__117__compressed_pairIPcNS_22__allocator_destructorINS_9allocatorIcEEEEEC1B7v160006IRS1_S5_EEOT_OT0_, symObjAddr: 0xCC14, symBinAddr: 0x10000E6A8, symSize: 0x3C }
  - { offsetInCU: 0x1E946, offset: 0x1E946, size: 0x8, addend: 0x0, symName: __ZNSt3__117__compressed_pairIPcNS_22__allocator_destructorINS_9allocatorIcEEEEEC2B7v160006IRS1_S5_EEOT_OT0_, symObjAddr: 0xCC50, symBinAddr: 0x10000E6E4, symSize: 0x48 }
  - { offsetInCU: 0x1E99B, offset: 0x1E99B, size: 0x8, addend: 0x0, symName: __ZNSt3__117__compressed_pairIPcNS_22__allocator_destructorINS_9allocatorIcEEEEEC2B7v160006IRS1_S5_EEOT_OT0_, symObjAddr: 0xCC50, symBinAddr: 0x10000E6E4, symSize: 0x48 }
  - { offsetInCU: 0x1E9A3, offset: 0x1E9A3, size: 0x8, addend: 0x0, symName: __ZNSt3__122__compressed_pair_elemIPcLi0ELb0EEC2B7v160006IRS1_vEEOT_, symObjAddr: 0xCC98, symBinAddr: 0x10000E72C, symSize: 0x24 }
  - { offsetInCU: 0x1E9F8, offset: 0x1E9F8, size: 0x8, addend: 0x0, symName: __ZNSt3__122__compressed_pair_elemIPcLi0ELb0EEC2B7v160006IRS1_vEEOT_, symObjAddr: 0xCC98, symBinAddr: 0x10000E72C, symSize: 0x24 }
  - { offsetInCU: 0x1EA00, offset: 0x1EA00, size: 0x8, addend: 0x0, symName: __ZNSt3__122__compressed_pair_elemINS_22__allocator_destructorINS_9allocatorIcEEEELi1ELb0EEC2B7v160006IS4_vEEOT_, symObjAddr: 0xCCBC, symBinAddr: 0x10000E750, symSize: 0x24 }
  - { offsetInCU: 0x1EA40, offset: 0x1EA40, size: 0x8, addend: 0x0, symName: __ZNSt3__122__compressed_pair_elemINS_22__allocator_destructorINS_9allocatorIcEEEELi1ELb0EEC2B7v160006IS4_vEEOT_, symObjAddr: 0xCCBC, symBinAddr: 0x10000E750, symSize: 0x24 }
  - { offsetInCU: 0x1EA48, offset: 0x1EA48, size: 0x8, addend: 0x0, symName: __ZNKSt3__117__compressed_pairIPcNS_22__allocator_destructorINS_9allocatorIcEEEEE5firstB7v160006Ev, symObjAddr: 0xCCE0, symBinAddr: 0x10000E774, symSize: 0x24 }
  - { offsetInCU: 0x1EA88, offset: 0x1EA88, size: 0x8, addend: 0x0, symName: __ZNKSt3__117__compressed_pairIPcNS_22__allocator_destructorINS_9allocatorIcEEEEE5firstB7v160006Ev, symObjAddr: 0xCCE0, symBinAddr: 0x10000E774, symSize: 0x24 }
  - { offsetInCU: 0x1EA90, offset: 0x1EA90, size: 0x8, addend: 0x0, symName: __ZNKSt3__122__compressed_pair_elemIPcLi0ELb0EE5__getB7v160006Ev, symObjAddr: 0xCD04, symBinAddr: 0x10000E798, symSize: 0x14 }
  - { offsetInCU: 0x1EAB3, offset: 0x1EAB3, size: 0x8, addend: 0x0, symName: __ZNKSt3__122__compressed_pair_elemIPcLi0ELb0EE5__getB7v160006Ev, symObjAddr: 0xCD04, symBinAddr: 0x10000E798, symSize: 0x14 }
  - { offsetInCU: 0x1EABB, offset: 0x1EABB, size: 0x8, addend: 0x0, symName: __ZNSt3__117__compressed_pairIPcNS_22__allocator_destructorINS_9allocatorIcEEEEE5firstB7v160006Ev, symObjAddr: 0xCD18, symBinAddr: 0x10000E7AC, symSize: 0x24 }
  - { offsetInCU: 0x1EADF, offset: 0x1EADF, size: 0x8, addend: 0x0, symName: __ZNSt3__117__compressed_pairIPcNS_22__allocator_destructorINS_9allocatorIcEEEEE5firstB7v160006Ev, symObjAddr: 0xCD18, symBinAddr: 0x10000E7AC, symSize: 0x24 }
  - { offsetInCU: 0x1EAE7, offset: 0x1EAE7, size: 0x8, addend: 0x0, symName: __ZNSt3__122__compressed_pair_elemIPcLi0ELb0EE5__getB7v160006Ev, symObjAddr: 0xCD3C, symBinAddr: 0x10000E7D0, symSize: 0x14 }
  - { offsetInCU: 0x1EB0A, offset: 0x1EB0A, size: 0x8, addend: 0x0, symName: __ZNSt3__122__compressed_pair_elemIPcLi0ELb0EE5__getB7v160006Ev, symObjAddr: 0xCD3C, symBinAddr: 0x10000E7D0, symSize: 0x14 }
  - { offsetInCU: 0x1EB12, offset: 0x1EB12, size: 0x8, addend: 0x0, symName: __ZNSt3__110unique_ptrIPcNS_22__allocator_destructorINS_9allocatorIcEEEEED2B7v160006Ev, symObjAddr: 0xCD50, symBinAddr: 0x10000E7E4, symSize: 0x30 }
  - { offsetInCU: 0x1EB36, offset: 0x1EB36, size: 0x8, addend: 0x0, symName: __ZNSt3__110unique_ptrIPcNS_22__allocator_destructorINS_9allocatorIcEEEEED2B7v160006Ev, symObjAddr: 0xCD50, symBinAddr: 0x10000E7E4, symSize: 0x30 }
  - { offsetInCU: 0x1EB3E, offset: 0x1EB3E, size: 0x8, addend: 0x0, symName: __ZNSt3__110unique_ptrIPcNS_22__allocator_destructorINS_9allocatorIcEEEEE5resetB7v160006ES1_, symObjAddr: 0xCD80, symBinAddr: 0x10000E814, symSize: 0x78 }
  - { offsetInCU: 0x1EB65, offset: 0x1EB65, size: 0x8, addend: 0x0, symName: __ZNSt3__110unique_ptrIPcNS_22__allocator_destructorINS_9allocatorIcEEEEE5resetB7v160006ES1_, symObjAddr: 0xCD80, symBinAddr: 0x10000E814, symSize: 0x78 }
  - { offsetInCU: 0x1EB6D, offset: 0x1EB6D, size: 0x8, addend: 0x0, symName: __ZNSt3__117__compressed_pairIPcNS_22__allocator_destructorINS_9allocatorIcEEEEE6secondB7v160006Ev, symObjAddr: 0xCDF8, symBinAddr: 0x10000E88C, symSize: 0x28 }
  - { offsetInCU: 0x1EBAE, offset: 0x1EBAE, size: 0x8, addend: 0x0, symName: __ZNSt3__117__compressed_pairIPcNS_22__allocator_destructorINS_9allocatorIcEEEEE6secondB7v160006Ev, symObjAddr: 0xCDF8, symBinAddr: 0x10000E88C, symSize: 0x28 }
  - { offsetInCU: 0x1EBB6, offset: 0x1EBB6, size: 0x8, addend: 0x0, symName: __ZNSt3__122__allocator_destructorINS_9allocatorIcEEEclB7v160006EPc, symObjAddr: 0xCE20, symBinAddr: 0x10000E8B4, symSize: 0x34 }
  - { offsetInCU: 0x1EBD9, offset: 0x1EBD9, size: 0x8, addend: 0x0, symName: __ZNSt3__122__allocator_destructorINS_9allocatorIcEEEclB7v160006EPc, symObjAddr: 0xCE20, symBinAddr: 0x10000E8B4, symSize: 0x34 }
  - { offsetInCU: 0x1EBE1, offset: 0x1EBE1, size: 0x8, addend: 0x0, symName: __ZNSt3__122__compressed_pair_elemINS_22__allocator_destructorINS_9allocatorIcEEEELi1ELb0EE5__getB7v160006Ev, symObjAddr: 0xCE54, symBinAddr: 0x10000E8E8, symSize: 0x14 }
  - { offsetInCU: 0x1EC12, offset: 0x1EC12, size: 0x8, addend: 0x0, symName: __ZNSt3__122__compressed_pair_elemINS_22__allocator_destructorINS_9allocatorIcEEEELi1ELb0EE5__getB7v160006Ev, symObjAddr: 0xCE54, symBinAddr: 0x10000E8E8, symSize: 0x14 }
  - { offsetInCU: 0x1EC1A, offset: 0x1EC1A, size: 0x8, addend: 0x0, symName: __ZNSt3__15stackIcNS_5dequeIcNS_9allocatorIcEEEEEC2B7v160006Ev, symObjAddr: 0xCE68, symBinAddr: 0x10000E8FC, symSize: 0x2C }
  - { offsetInCU: 0x1EC3E, offset: 0x1EC3E, size: 0x8, addend: 0x0, symName: __ZNSt3__15stackIcNS_5dequeIcNS_9allocatorIcEEEEEC2B7v160006Ev, symObjAddr: 0xCE68, symBinAddr: 0x10000E8FC, symSize: 0x2C }
  - { offsetInCU: 0x1EC46, offset: 0x1EC46, size: 0x8, addend: 0x0, symName: __ZNSt3__15dequeIcNS_9allocatorIcEEEC1B7v160006Ev, symObjAddr: 0xCE94, symBinAddr: 0x10000E928, symSize: 0x2C }
  - { offsetInCU: 0x1EC6D, offset: 0x1EC6D, size: 0x8, addend: 0x0, symName: __ZNSt3__15dequeIcNS_9allocatorIcEEEC1B7v160006Ev, symObjAddr: 0xCE94, symBinAddr: 0x10000E928, symSize: 0x2C }
  - { offsetInCU: 0x1EC75, offset: 0x1EC75, size: 0x8, addend: 0x0, symName: __ZNSt3__15dequeIcNS_9allocatorIcEEEC2B7v160006Ev, symObjAddr: 0xCEC0, symBinAddr: 0x10000E954, symSize: 0x50 }
  - { offsetInCU: 0x1EC9C, offset: 0x1EC9C, size: 0x8, addend: 0x0, symName: __ZNSt3__15dequeIcNS_9allocatorIcEEEC2B7v160006Ev, symObjAddr: 0xCEC0, symBinAddr: 0x10000E954, symSize: 0x50 }
  - { offsetInCU: 0x1ECA4, offset: 0x1ECA4, size: 0x8, addend: 0x0, symName: __ZNSt3__114__split_bufferIPcNS_9allocatorIS1_EEEC1Ev, symObjAddr: 0xCF10, symBinAddr: 0x10000E9A4, symSize: 0x2C }
  - { offsetInCU: 0x1ECCB, offset: 0x1ECCB, size: 0x8, addend: 0x0, symName: __ZNSt3__114__split_bufferIPcNS_9allocatorIS1_EEEC1Ev, symObjAddr: 0xCF10, symBinAddr: 0x10000E9A4, symSize: 0x2C }
  - { offsetInCU: 0x1ECD3, offset: 0x1ECD3, size: 0x8, addend: 0x0, symName: __ZNSt3__117__compressed_pairImNS_9allocatorIcEEEC1B7v160006IiNS_18__default_init_tagEEEOT_OT0_, symObjAddr: 0xCF3C, symBinAddr: 0x10000E9D0, symSize: 0x3C }
  - { offsetInCU: 0x1ECFC, offset: 0x1ECFC, size: 0x8, addend: 0x0, symName: __ZNSt3__117__compressed_pairImNS_9allocatorIcEEEC1B7v160006IiNS_18__default_init_tagEEEOT_OT0_, symObjAddr: 0xCF3C, symBinAddr: 0x10000E9D0, symSize: 0x3C }
  - { offsetInCU: 0x1ED04, offset: 0x1ED04, size: 0x8, addend: 0x0, symName: __ZNSt3__114__split_bufferIPcNS_9allocatorIS1_EEEC2Ev, symObjAddr: 0xCF78, symBinAddr: 0x10000EA0C, symSize: 0x50 }
  - { offsetInCU: 0x1ED59, offset: 0x1ED59, size: 0x8, addend: 0x0, symName: __ZNSt3__114__split_bufferIPcNS_9allocatorIS1_EEEC2Ev, symObjAddr: 0xCF78, symBinAddr: 0x10000EA0C, symSize: 0x50 }
  - { offsetInCU: 0x1ED61, offset: 0x1ED61, size: 0x8, addend: 0x0, symName: __ZNSt3__117__compressed_pairIPPcNS_9allocatorIS1_EEEC1B7v160006IDnNS_18__default_init_tagEEEOT_OT0_, symObjAddr: 0xCFC8, symBinAddr: 0x10000EA5C, symSize: 0x3C }
  - { offsetInCU: 0x1ED8A, offset: 0x1ED8A, size: 0x8, addend: 0x0, symName: __ZNSt3__117__compressed_pairIPPcNS_9allocatorIS1_EEEC1B7v160006IDnNS_18__default_init_tagEEEOT_OT0_, symObjAddr: 0xCFC8, symBinAddr: 0x10000EA5C, symSize: 0x3C }
  - { offsetInCU: 0x1ED92, offset: 0x1ED92, size: 0x8, addend: 0x0, symName: __ZNSt3__117__compressed_pairIPPcNS_9allocatorIS1_EEEC2B7v160006IDnNS_18__default_init_tagEEEOT_OT0_, symObjAddr: 0xD004, symBinAddr: 0x10000EA98, symSize: 0x40 }
  - { offsetInCU: 0x1EDE7, offset: 0x1EDE7, size: 0x8, addend: 0x0, symName: __ZNSt3__117__compressed_pairIPPcNS_9allocatorIS1_EEEC2B7v160006IDnNS_18__default_init_tagEEEOT_OT0_, symObjAddr: 0xD004, symBinAddr: 0x10000EA98, symSize: 0x40 }
  - { offsetInCU: 0x1EDEF, offset: 0x1EDEF, size: 0x8, addend: 0x0, symName: __ZNSt3__122__compressed_pair_elemINS_9allocatorIPcEELi1ELb1EEC2B7v160006ENS_18__default_init_tagE, symObjAddr: 0xD044, symBinAddr: 0x10000EAD8, symSize: 0x2C }
  - { offsetInCU: 0x1EE44, offset: 0x1EE44, size: 0x8, addend: 0x0, symName: __ZNSt3__122__compressed_pair_elemINS_9allocatorIPcEELi1ELb1EEC2B7v160006ENS_18__default_init_tagE, symObjAddr: 0xD044, symBinAddr: 0x10000EAD8, symSize: 0x2C }
  - { offsetInCU: 0x1EE4C, offset: 0x1EE4C, size: 0x8, addend: 0x0, symName: __ZNSt3__19allocatorIPcEC2B7v160006Ev, symObjAddr: 0xD070, symBinAddr: 0x10000EB04, symSize: 0x2C }
  - { offsetInCU: 0x1EE7D, offset: 0x1EE7D, size: 0x8, addend: 0x0, symName: __ZNSt3__19allocatorIPcEC2B7v160006Ev, symObjAddr: 0xD070, symBinAddr: 0x10000EB04, symSize: 0x2C }
  - { offsetInCU: 0x1EE85, offset: 0x1EE85, size: 0x8, addend: 0x0, symName: __ZNSt3__117__compressed_pairImNS_9allocatorIcEEEC2B7v160006IiNS_18__default_init_tagEEEOT_OT0_, symObjAddr: 0xD09C, symBinAddr: 0x10000EB30, symSize: 0x40 }
  - { offsetInCU: 0x1EEAC, offset: 0x1EEAC, size: 0x8, addend: 0x0, symName: __ZNSt3__117__compressed_pairImNS_9allocatorIcEEEC2B7v160006IiNS_18__default_init_tagEEEOT_OT0_, symObjAddr: 0xD09C, symBinAddr: 0x10000EB30, symSize: 0x40 }
  - { offsetInCU: 0x1EEB4, offset: 0x1EEB4, size: 0x8, addend: 0x0, symName: __ZNKSt3__113basic_istreamIcNS_11char_traitsIcEEE6sentrycvbB7v160006Ev, symObjAddr: 0xD0DC, symBinAddr: 0x10000EB70, symSize: 0x1C }
  - { offsetInCU: 0x1EFA9, offset: 0x1EFA9, size: 0x8, addend: 0x0, symName: __ZNKSt3__113basic_istreamIcNS_11char_traitsIcEEE6sentrycvbB7v160006Ev, symObjAddr: 0xD0DC, symBinAddr: 0x10000EB70, symSize: 0x1C }
  - { offsetInCU: 0x1EFB1, offset: 0x1EFB1, size: 0x8, addend: 0x0, symName: __ZNSt3__115basic_streambufIcNS_11char_traitsIcEEE6sbumpcB7v160006Ev, symObjAddr: 0xD0F8, symBinAddr: 0x10000EB8C, symSize: 0x78 }
  - { offsetInCU: 0x1EFD5, offset: 0x1EFD5, size: 0x8, addend: 0x0, symName: __ZNSt3__115basic_streambufIcNS_11char_traitsIcEEE6sbumpcB7v160006Ev, symObjAddr: 0xD0F8, symBinAddr: 0x10000EB8C, symSize: 0x78 }
  - { offsetInCU: 0x1EFDD, offset: 0x1EFDD, size: 0x8, addend: 0x0, symName: __ZNSt3__111char_traitsIcE12to_char_typeEi, symObjAddr: 0xD170, symBinAddr: 0x10000EC04, symSize: 0x18 }
  - { offsetInCU: 0x1F000, offset: 0x1F000, size: 0x8, addend: 0x0, symName: __ZNSt3__111char_traitsIcE12to_char_typeEi, symObjAddr: 0xD170, symBinAddr: 0x10000EC04, symSize: 0x18 }
  - { offsetInCU: 0x1F008, offset: 0x1F008, size: 0x8, addend: 0x0, symName: __ZNSt3__18ios_base18__setstate_nothrowB7v160006Ej, symObjAddr: 0xD188, symBinAddr: 0x10000EC1C, symSize: 0x64 }
  - { offsetInCU: 0x1F028, offset: 0x1F028, size: 0x8, addend: 0x0, symName: __ZNSt3__18ios_base18__setstate_nothrowB7v160006Ej, symObjAddr: 0xD188, symBinAddr: 0x10000EC1C, symSize: 0x64 }
  - { offsetInCU: 0x1F030, offset: 0x1F030, size: 0x8, addend: 0x0, symName: __ZNKSt3__19basic_iosIcNS_11char_traitsIcEEE10exceptionsB7v160006Ev, symObjAddr: 0xD1EC, symBinAddr: 0x10000EC80, symSize: 0x24 }
  - { offsetInCU: 0x1F063, offset: 0x1F063, size: 0x8, addend: 0x0, symName: __ZNKSt3__19basic_iosIcNS_11char_traitsIcEEE10exceptionsB7v160006Ev, symObjAddr: 0xD1EC, symBinAddr: 0x10000EC80, symSize: 0x24 }
  - { offsetInCU: 0x1F06B, offset: 0x1F06B, size: 0x8, addend: 0x0, symName: __ZNSt3__111char_traitsIcE11to_int_typeEc, symObjAddr: 0xD210, symBinAddr: 0x10000ECA4, symSize: 0x14 }
  - { offsetInCU: 0x1F08E, offset: 0x1F08E, size: 0x8, addend: 0x0, symName: __ZNSt3__111char_traitsIcE11to_int_typeEc, symObjAddr: 0xD210, symBinAddr: 0x10000ECA4, symSize: 0x14 }
  - { offsetInCU: 0x1F096, offset: 0x1F096, size: 0x8, addend: 0x0, symName: __ZNKSt3__18ios_base10exceptionsB7v160006Ev, symObjAddr: 0xD224, symBinAddr: 0x10000ECB8, symSize: 0x18 }
  - { offsetInCU: 0x1F0B6, offset: 0x1F0B6, size: 0x8, addend: 0x0, symName: __ZNKSt3__18ios_base10exceptionsB7v160006Ev, symObjAddr: 0xD224, symBinAddr: 0x10000ECB8, symSize: 0x18 }
...
